   1               		.file	"basic_rf.c"
   2               	__SREG__ = 0x3f
   3               	__SP_H__ = 0x3e
   4               	__SP_L__ = 0x3d
   5               	__CCP__ = 0x34
   6               	__tmp_reg__ = 0
   7               	__zero_reg__ = 1
  10               		.text
  11               	.Ltext0:
 136               	.global	cc259x_rx
 138               	cc259x_rx:
 139               		.stabd	46,0,0
   1:../../../src/radio/cc2420/source/basic_rf.c **** /******************************************************************************
   2:../../../src/radio/cc2420/source/basic_rf.c **** *  Nano-RK, a real-time operating system for sensor networks.
   3:../../../src/radio/cc2420/source/basic_rf.c **** *  Copyright (C) 2007, Real-Time and Multimedia Lab, Carnegie Mellon University
   4:../../../src/radio/cc2420/source/basic_rf.c **** *  All rights reserved.
   5:../../../src/radio/cc2420/source/basic_rf.c **** *
   6:../../../src/radio/cc2420/source/basic_rf.c **** *  This is the Open Source Version of Nano-RK included as part of a Dual
   7:../../../src/radio/cc2420/source/basic_rf.c **** *  Licensing Model. If you are unsure which license to use please refer to:
   8:../../../src/radio/cc2420/source/basic_rf.c **** *  http://www.nanork.org/nano-RK/wiki/Licensing
   9:../../../src/radio/cc2420/source/basic_rf.c **** *
  10:../../../src/radio/cc2420/source/basic_rf.c **** *  This program is free software: you can redistribute it and/or modify
  11:../../../src/radio/cc2420/source/basic_rf.c **** *  it under the terms of the GNU General Public License as published by
  12:../../../src/radio/cc2420/source/basic_rf.c **** *  the Free Software Foundation, version 2.0 of the License.
  13:../../../src/radio/cc2420/source/basic_rf.c **** *
  14:../../../src/radio/cc2420/source/basic_rf.c **** *  This program is distributed in the hope that it will be useful,
  15:../../../src/radio/cc2420/source/basic_rf.c **** *  but WITHOUT ANY WARRANTY; without even the implied warranty of
  16:../../../src/radio/cc2420/source/basic_rf.c **** *  MERCHANTABILITY or FITNESS FOR A PARTICULAR PURPOSE.  See the
  17:../../../src/radio/cc2420/source/basic_rf.c **** *  GNU General Public License for more details.
  18:../../../src/radio/cc2420/source/basic_rf.c **** *
  19:../../../src/radio/cc2420/source/basic_rf.c **** *  You should have received a copy of the GNU General Public License
  20:../../../src/radio/cc2420/source/basic_rf.c **** *  along with this program.  If not, see <http://www.gnu.org/licenses/>.
  21:../../../src/radio/cc2420/source/basic_rf.c **** *
  22:../../../src/radio/cc2420/source/basic_rf.c **** *  Contributing Authors (specific to this file):
  23:../../../src/radio/cc2420/source/basic_rf.c **** *  Chipcon Development Team
  24:../../../src/radio/cc2420/source/basic_rf.c **** *  Anthony Rowe
  25:../../../src/radio/cc2420/source/basic_rf.c **** *  Nuno Pereira
  26:../../../src/radio/cc2420/source/basic_rf.c **** *  Bach Bui
  27:../../../src/radio/cc2420/source/basic_rf.c **** *******************************************************************************/
  28:../../../src/radio/cc2420/source/basic_rf.c **** 
  29:../../../src/radio/cc2420/source/basic_rf.c **** #include <include.h>
  30:../../../src/radio/cc2420/source/basic_rf.c **** #include <basic_rf.h>
  31:../../../src/radio/cc2420/source/basic_rf.c **** #include <ulib.h>
  32:../../../src/radio/cc2420/source/basic_rf.c **** #include <nrk.h>
  33:../../../src/radio/cc2420/source/basic_rf.c **** #include <nrk_events.h>
  34:../../../src/radio/cc2420/source/basic_rf.c **** #include <nrk_error.h>
  35:../../../src/radio/cc2420/source/basic_rf.c **** #include <nrk_timer.h>
  36:../../../src/radio/cc2420/source/basic_rf.c **** #include <nrk_cpu.h>
  37:../../../src/radio/cc2420/source/basic_rf.c **** 
  38:../../../src/radio/cc2420/source/basic_rf.c **** #define OSC_STARTUP_DELAY	1000
  39:../../../src/radio/cc2420/source/basic_rf.c **** 
  40:../../../src/radio/cc2420/source/basic_rf.c **** void cc259x_rx()
  41:../../../src/radio/cc2420/source/basic_rf.c **** {
 141               	.LM0:
 142               	.LFBB1:
 143               	/* prologue: function */
 144               	/* frame size = 0 */
 145               	/* stack size = 0 */
 146               	.L__stack_usage = 0
  42:../../../src/radio/cc2420/source/basic_rf.c ****     nrk_gpio_set(NRK_DEBUG_1);
 148               	.LM1:
 149 0000 8091 0000 		lds r24,NRK_DEBUG_1
 150 0004 0E94 0000 		call nrk_gpio_set
  43:../../../src/radio/cc2420/source/basic_rf.c ****     nrk_gpio_clr(NRK_DEBUG_0);
 152               	.LM2:
 153 0008 8091 0000 		lds r24,NRK_DEBUG_0
 154 000c 0E94 0000 		call nrk_gpio_clr
 155               	/* epilogue start */
  44:../../../src/radio/cc2420/source/basic_rf.c **** }
 157               	.LM3:
 158 0010 0895      		ret
 160               	.Lscope1:
 162               		.stabd	78,0,0
 164               	.global	cc259x_tx
 166               	cc259x_tx:
 167               		.stabd	46,0,0
  45:../../../src/radio/cc2420/source/basic_rf.c **** 
  46:../../../src/radio/cc2420/source/basic_rf.c **** 
  47:../../../src/radio/cc2420/source/basic_rf.c **** void cc259x_tx()
  48:../../../src/radio/cc2420/source/basic_rf.c **** {
 169               	.LM4:
 170               	.LFBB2:
 171               	/* prologue: function */
 172               	/* frame size = 0 */
 173               	/* stack size = 0 */
 174               	.L__stack_usage = 0
  49:../../../src/radio/cc2420/source/basic_rf.c ****     nrk_gpio_set(NRK_DEBUG_1);
 176               	.LM5:
 177 0012 8091 0000 		lds r24,NRK_DEBUG_1
 178 0016 0E94 0000 		call nrk_gpio_set
  50:../../../src/radio/cc2420/source/basic_rf.c ****     nrk_gpio_set(NRK_DEBUG_0);
 180               	.LM6:
 181 001a 8091 0000 		lds r24,NRK_DEBUG_0
 182 001e 0E94 0000 		call nrk_gpio_set
 183               	/* epilogue start */
  51:../../../src/radio/cc2420/source/basic_rf.c **** }
 185               	.LM7:
 186 0022 0895      		ret
 188               	.Lscope2:
 190               		.stabd	78,0,0
 192               	.global	rf_power_down
 194               	rf_power_down:
 195               		.stabd	46,0,0
  52:../../../src/radio/cc2420/source/basic_rf.c **** 
  53:../../../src/radio/cc2420/source/basic_rf.c **** 
  54:../../../src/radio/cc2420/source/basic_rf.c **** //#ifndef RADIO_PRIORITY_CEILING
  55:../../../src/radio/cc2420/source/basic_rf.c **** //  #define RADIO_PRIORITY_CEILING	20
  56:../../../src/radio/cc2420/source/basic_rf.c **** //#endif
  57:../../../src/radio/cc2420/source/basic_rf.c **** 
  58:../../../src/radio/cc2420/source/basic_rf.c **** nrk_sem_t *radio_sem;
  59:../../../src/radio/cc2420/source/basic_rf.c **** uint8_t auto_ack_enable;
  60:../../../src/radio/cc2420/source/basic_rf.c **** uint8_t security_enable;
  61:../../../src/radio/cc2420/source/basic_rf.c **** uint8_t last_pkt_encrypted;
  62:../../../src/radio/cc2420/source/basic_rf.c **** uint16_t mdmctrl0;
  63:../../../src/radio/cc2420/source/basic_rf.c **** uint8_t tx_ctr[4];
  64:../../../src/radio/cc2420/source/basic_rf.c **** uint8_t rx_ctr[4];
  65:../../../src/radio/cc2420/source/basic_rf.c **** 
  66:../../../src/radio/cc2420/source/basic_rf.c **** void rf_power_down()
  67:../../../src/radio/cc2420/source/basic_rf.c **** {
 197               	.LM8:
 198               	.LFBB3:
 199               	/* prologue: function */
 200               	/* frame size = 0 */
 201               	/* stack size = 0 */
 202               	.L__stack_usage = 0
  68:../../../src/radio/cc2420/source/basic_rf.c ****     DISABLE_GLOBAL_INT();
 204               	.LM9:
 205               	/* #APP */
 206               	 ;  68 "../../../src/radio/cc2420/source/basic_rf.c" 1
 207 0024 F894      		cli
 208               		
 209               	 ;  0 "" 2
  69:../../../src/radio/cc2420/source/basic_rf.c ****     FASTSPI_STROBE(CC2420_SXOSCOFF);
 211               	.LM10:
 212               	/* #NOAPP */
 213 0026 4098      		cbi 40-32,0
 214 0028 87E0      		ldi r24,lo8(7)
 215 002a 8EBD      		out 78-32,r24
 216               	.L4:
 218               	.LM11:
 219 002c 0DB4      		in __tmp_reg__,77-32
 220 002e 07FE      		sbrs __tmp_reg__,7
 221 0030 00C0      		rjmp .L4
 223               	.LM12:
 224 0032 409A      		sbi 40-32,0
  70:../../../src/radio/cc2420/source/basic_rf.c ****     FASTSPI_STROBE(CC2420_SRFOFF);  // shut off radio
 226               	.LM13:
 227 0034 4098      		cbi 40-32,0
 228 0036 86E0      		ldi r24,lo8(6)
 229 0038 8EBD      		out 78-32,r24
 230               	.L5:
 232               	.LM14:
 233 003a 0DB4      		in __tmp_reg__,77-32
 234 003c 07FE      		sbrs __tmp_reg__,7
 235 003e 00C0      		rjmp .L5
 237               	.LM15:
 238 0040 409A      		sbi 40-32,0
  71:../../../src/radio/cc2420/source/basic_rf.c ****     ENABLE_GLOBAL_INT();
 240               	.LM16:
 241               	/* #APP */
 242               	 ;  71 "../../../src/radio/cc2420/source/basic_rf.c" 1
 243 0042 7894      		sei
 244               		
 245               	 ;  0 "" 2
 246               	/* epilogue start */
  72:../../../src/radio/cc2420/source/basic_rf.c **** }
 248               	.LM17:
 249               	/* #NOAPP */
 250 0044 0895      		ret
 252               	.Lscope3:
 254               		.stabd	78,0,0
 256               	.global	rf_power_up
 258               	rf_power_up:
 259               		.stabd	46,0,0
  73:../../../src/radio/cc2420/source/basic_rf.c **** 
  74:../../../src/radio/cc2420/source/basic_rf.c **** void rf_power_up()
  75:../../../src/radio/cc2420/source/basic_rf.c **** {
 261               	.LM18:
 262               	.LFBB4:
 263               	/* prologue: function */
 264               	/* frame size = 0 */
 265               	/* stack size = 0 */
 266               	.L__stack_usage = 0
  76:../../../src/radio/cc2420/source/basic_rf.c **** 
  77:../../../src/radio/cc2420/source/basic_rf.c ****     DISABLE_GLOBAL_INT();
 268               	.LM19:
 269               	/* #APP */
 270               	 ;  77 "../../../src/radio/cc2420/source/basic_rf.c" 1
 271 0046 F894      		cli
 272               		
 273               	 ;  0 "" 2
  78:../../../src/radio/cc2420/source/basic_rf.c ****     FASTSPI_STROBE(CC2420_SXOSCON);
 275               	.LM20:
 276               	/* #NOAPP */
 277 0048 4098      		cbi 40-32,0
 278 004a 81E0      		ldi r24,lo8(1)
 279 004c 8EBD      		out 78-32,r24
 280               	.L9:
 282               	.LM21:
 283 004e 0DB4      		in __tmp_reg__,77-32
 284 0050 07FE      		sbrs __tmp_reg__,7
 285 0052 00C0      		rjmp .L9
 287               	.LM22:
 288 0054 409A      		sbi 40-32,0
  79:../../../src/radio/cc2420/source/basic_rf.c ****     nrk_spin_wait_us(OSC_STARTUP_DELAY);
 290               	.LM23:
 291 0056 88EE      		ldi r24,lo8(1000)
 292 0058 93E0      		ldi r25,hi8(1000)
 293 005a 0E94 0000 		call nrk_spin_wait_us
  80:../../../src/radio/cc2420/source/basic_rf.c ****     ENABLE_GLOBAL_INT();
 295               	.LM24:
 296               	/* #APP */
 297               	 ;  80 "../../../src/radio/cc2420/source/basic_rf.c" 1
 298 005e 7894      		sei
 299               		
 300               	 ;  0 "" 2
 301               	/* epilogue start */
  81:../../../src/radio/cc2420/source/basic_rf.c **** 
  82:../../../src/radio/cc2420/source/basic_rf.c **** }
 303               	.LM25:
 304               	/* #NOAPP */
 305 0060 0895      		ret
 307               	.Lscope4:
 309               		.stabd	78,0,0
 311               	.global	rf_security_last_pkt_status
 313               	rf_security_last_pkt_status:
 314               		.stabd	46,0,0
  83:../../../src/radio/cc2420/source/basic_rf.c **** 
  84:../../../src/radio/cc2420/source/basic_rf.c **** 
  85:../../../src/radio/cc2420/source/basic_rf.c **** // Returns 1 if the last packet was encrypted, 0 otherwise
  86:../../../src/radio/cc2420/source/basic_rf.c **** uint8_t rf_security_last_pkt_status()
  87:../../../src/radio/cc2420/source/basic_rf.c **** {
 316               	.LM26:
 317               	.LFBB5:
 318               	/* prologue: function */
 319               	/* frame size = 0 */
 320               	/* stack size = 0 */
 321               	.L__stack_usage = 0
  88:../../../src/radio/cc2420/source/basic_rf.c ****     return last_pkt_encrypted;
  89:../../../src/radio/cc2420/source/basic_rf.c **** }
 323               	.LM27:
 324 0062 8091 0000 		lds r24,last_pkt_encrypted
 325               	/* epilogue start */
 326 0066 0895      		ret
 328               	.Lscope5:
 330               		.stabd	78,0,0
 333               	.global	rf_security_set_ctr_counter
 335               	rf_security_set_ctr_counter:
 336               		.stabd	46,0,0
  90:../../../src/radio/cc2420/source/basic_rf.c **** 
  91:../../../src/radio/cc2420/source/basic_rf.c **** 
  92:../../../src/radio/cc2420/source/basic_rf.c **** void rf_security_set_ctr_counter(uint8_t *counter)
  93:../../../src/radio/cc2420/source/basic_rf.c **** {
 338               	.LM28:
 339               	.LFBB6:
 340               	/* prologue: function */
 341               	/* frame size = 0 */
 342               	/* stack size = 0 */
 343               	.L__stack_usage = 0
 344 0068 FC01      		movw r30,r24
  94:../../../src/radio/cc2420/source/basic_rf.c ****     uint8_t n;
  95:../../../src/radio/cc2420/source/basic_rf.c **** // CTR counter value
  96:../../../src/radio/cc2420/source/basic_rf.c ****     FASTSPI_WRITE_RAM(&counter[0],(CC2420RAM_TXNONCE+9),2,n);
 346               	.LM29:
 347 006a 4098      		cbi 40-32,0
 348 006c 89EC      		ldi r24,lo8(-55)
 349 006e 8EBD      		out 78-32,r24
 350               	.L13:
 352               	.LM30:
 353 0070 0DB4      		in __tmp_reg__,77-32
 354 0072 07FE      		sbrs __tmp_reg__,7
 355 0074 00C0      		rjmp .L13
 357               	.LM31:
 358 0076 80E8      		ldi r24,lo8(-128)
 359 0078 8EBD      		out 78-32,r24
 360               	.L14:
 362               	.LM32:
 363 007a 0DB4      		in __tmp_reg__,77-32
 364 007c 07FE      		sbrs __tmp_reg__,7
 365 007e 00C0      		rjmp .L14
 367               	.LM33:
 368 0080 82E0      		ldi r24,lo8(2)
 369               	.L16:
 370 0082 8150      		subi r24,lo8(-(-1))
 371 0084 DF01      		movw r26,r30
 372 0086 A80F      		add r26,r24
 373 0088 B11D      		adc r27,__zero_reg__
 374 008a 9C91      		ld r25,X
 375 008c 9EBD      		out 78-32,r25
 376               	.L15:
 378               	.LM34:
 379 008e 0DB4      		in __tmp_reg__,77-32
 380 0090 07FE      		sbrs __tmp_reg__,7
 381 0092 00C0      		rjmp .L15
 383               	.LM35:
 384 0094 8823      		tst r24
 385 0096 01F4      		brne .L16
 387               	.LM36:
 388 0098 409A      		sbi 40-32,0
  97:../../../src/radio/cc2420/source/basic_rf.c ****     FASTSPI_WRITE_RAM(&counter[2],(CC2420RAM_TXNONCE+11),2,n);
 390               	.LM37:
 391 009a 4098      		cbi 40-32,0
 392 009c 8BEC      		ldi r24,lo8(-53)
 393 009e 8EBD      		out 78-32,r24
 394               	.L17:
 396               	.LM38:
 397 00a0 0DB4      		in __tmp_reg__,77-32
 398 00a2 07FE      		sbrs __tmp_reg__,7
 399 00a4 00C0      		rjmp .L17
 401               	.LM39:
 402 00a6 80E8      		ldi r24,lo8(-128)
 403 00a8 8EBD      		out 78-32,r24
 404               	.L18:
 406               	.LM40:
 407 00aa 0DB4      		in __tmp_reg__,77-32
 408 00ac 07FE      		sbrs __tmp_reg__,7
 409 00ae 00C0      		rjmp .L18
 411               	.LM41:
 412 00b0 82E0      		ldi r24,lo8(2)
 413               	.L20:
 414 00b2 8150      		subi r24,lo8(-(-1))
 415 00b4 DF01      		movw r26,r30
 416 00b6 A80F      		add r26,r24
 417 00b8 B11D      		adc r27,__zero_reg__
 418 00ba 1296      		adiw r26,2
 419 00bc 9C91      		ld r25,X
 420 00be 1297      		sbiw r26,2
 421 00c0 9EBD      		out 78-32,r25
 422               	.L19:
 424               	.LM42:
 425 00c2 0DB4      		in __tmp_reg__,77-32
 426 00c4 07FE      		sbrs __tmp_reg__,7
 427 00c6 00C0      		rjmp .L19
 429               	.LM43:
 430 00c8 8823      		tst r24
 431 00ca 01F4      		brne .L20
 433               	.LM44:
 434 00cc 409A      		sbi 40-32,0
  98:../../../src/radio/cc2420/source/basic_rf.c ****     tx_ctr[0]=counter[0];
 436               	.LM45:
 437 00ce 8081      		ld r24,Z
 438 00d0 8093 0000 		sts tx_ctr,r24
  99:../../../src/radio/cc2420/source/basic_rf.c ****     tx_ctr[1]=counter[1];
 440               	.LM46:
 441 00d4 8181      		ldd r24,Z+1
 442 00d6 8093 0000 		sts tx_ctr+1,r24
 100:../../../src/radio/cc2420/source/basic_rf.c ****     tx_ctr[2]=counter[2];
 444               	.LM47:
 445 00da 8281      		ldd r24,Z+2
 446 00dc 8093 0000 		sts tx_ctr+2,r24
 101:../../../src/radio/cc2420/source/basic_rf.c ****     tx_ctr[3]=counter[3];
 448               	.LM48:
 449 00e0 8381      		ldd r24,Z+3
 450 00e2 8093 0000 		sts tx_ctr+3,r24
 451               	/* epilogue start */
 102:../../../src/radio/cc2420/source/basic_rf.c **** }
 453               	.LM49:
 454 00e6 0895      		ret
 456               	.Lscope6:
 458               		.stabd	78,0,0
 460               	.global	rf_security_set_key
 462               	rf_security_set_key:
 463               		.stabd	46,0,0
 103:../../../src/radio/cc2420/source/basic_rf.c **** 
 104:../../../src/radio/cc2420/source/basic_rf.c **** 
 105:../../../src/radio/cc2420/source/basic_rf.c **** void rf_security_set_key(uint8_t *key)
 106:../../../src/radio/cc2420/source/basic_rf.c **** {
 465               	.LM50:
 466               	.LFBB7:
 467 00e8 8F92      		push r8
 468 00ea 9F92      		push r9
 469 00ec AF92      		push r10
 470 00ee BF92      		push r11
 471 00f0 CF92      		push r12
 472 00f2 DF92      		push r13
 473 00f4 EF92      		push r14
 474 00f6 FF92      		push r15
 475 00f8 0F93      		push r16
 476 00fa 1F93      		push r17
 477 00fc DF93      		push r29
 478 00fe CF93      		push r28
 479 0100 00D0      		rcall .
 480 0102 00D0      		rcall .
 481 0104 CDB7      		in r28,__SP_L__
 482 0106 DEB7      		in r29,__SP_H__
 483               	/* prologue: function */
 484               	/* frame size = 4 */
 485               	/* stack size = 16 */
 486               	.L__stack_usage = 16
 487 0108 E82E      		mov r14,r24
 488 010a 092F      		mov r16,r25
 107:../../../src/radio/cc2420/source/basic_rf.c ****     uint8_t n,i;
 108:../../../src/radio/cc2420/source/basic_rf.c ****     uint16_t key_buf;
 109:../../../src/radio/cc2420/source/basic_rf.c **** 
 110:../../../src/radio/cc2420/source/basic_rf.c **** // Set AES key
 111:../../../src/radio/cc2420/source/basic_rf.c ****     nrk_spin_wait_us(100);
 490               	.LM51:
 491 010c 84E6      		ldi r24,lo8(100)
 492 010e 90E0      		ldi r25,hi8(100)
 493 0110 0E94 0000 		call nrk_spin_wait_us
 494 0114 F02E      		mov r15,r16
 495 0116 20E0      		ldi r18,lo8(256)
 496 0118 31E0      		ldi r19,hi8(256)
 112:../../../src/radio/cc2420/source/basic_rf.c ****     for(i=0; i<8; i++ )
 113:../../../src/radio/cc2420/source/basic_rf.c ****     {
 114:../../../src/radio/cc2420/source/basic_rf.c ****         key_buf=(key[i]<<8)|key[i+1];
 115:../../../src/radio/cc2420/source/basic_rf.c ****         nrk_spin_wait_us(100);
 116:../../../src/radio/cc2420/source/basic_rf.c ****         FASTSPI_WRITE_RAM_LE(&key_buf,(CC2420RAM_KEY0+(i*2)),2,n);
 498               	.LM52:
 499 011a 8E01      		movw r16,r28
 500 011c 0F5F      		subi r16,lo8(-(1))
 501 011e 1F4F      		sbci r17,hi8(-(1))
 105:../../../src/radio/cc2420/source/basic_rf.c **** void rf_security_set_key(uint8_t *key)
 503               	.LM53:
 504 0120 F3E0      		ldi r31,lo8(3)
 505 0122 CF2E      		mov r12,r31
 506 0124 D12C      		mov r13,__zero_reg__
 507 0126 CC0E      		add r12,r28
 508 0128 DD1E      		adc r13,r29
 509               	.L34:
 114:../../../src/radio/cc2420/source/basic_rf.c ****         key_buf=(key[i]<<8)|key[i+1];
 511               	.LM54:
 512 012a F701      		movw r30,r14
 513 012c 9190      		ld r9,Z+
 514 012e 7F01      		movw r14,r30
 515 0130 8824      		clr r8
 516 0132 8081      		ld r24,Z
 517 0134 90E0      		ldi r25,lo8(0)
 518 0136 8829      		or r24,r8
 519 0138 9929      		or r25,r9
 520 013a 9A83      		std Y+2,r25
 521 013c 8983      		std Y+1,r24
 115:../../../src/radio/cc2420/source/basic_rf.c ****         nrk_spin_wait_us(100);
 523               	.LM55:
 524 013e 84E6      		ldi r24,lo8(100)
 525 0140 90E0      		ldi r25,hi8(100)
 526 0142 2B83      		std Y+3,r18
 527 0144 3C83      		std Y+4,r19
 528 0146 0E94 0000 		call nrk_spin_wait_us
 530               	.LM56:
 531 014a 4098      		cbi 40-32,0
 532 014c 2B81      		ldd r18,Y+3
 533 014e 3C81      		ldd r19,Y+4
 534 0150 822F      		mov r24,r18
 535 0152 8068      		ori r24,lo8(-128)
 536 0154 8EBD      		out 78-32,r24
 537               	.L30:
 539               	.LM57:
 540 0156 0DB4      		in __tmp_reg__,77-32
 541 0158 07FE      		sbrs __tmp_reg__,7
 542 015a 00C0      		rjmp .L30
 544               	.LM58:
 545 015c C901      		movw r24,r18
 546 015e 9595      		asr r25
 547 0160 8795      		ror r24
 548 0162 807C      		andi r24,lo8(-64)
 549 0164 8EBD      		out 78-32,r24
 550               	.L31:
 552               	.LM59:
 553 0166 0DB4      		in __tmp_reg__,77-32
 554 0168 07FE      		sbrs __tmp_reg__,7
 555 016a 00C0      		rjmp .L31
 557               	.LM60:
 558 016c 5801      		movw r10,r16
 105:../../../src/radio/cc2420/source/basic_rf.c **** void rf_security_set_key(uint8_t *key)
 560               	.LM61:
 561 016e F801      		movw r30,r16
 562               	.L33:
 564               	.LM62:
 565 0170 8191      		ld r24,Z+
 566 0172 8EBD      		out 78-32,r24
 567               	.L32:
 569               	.LM63:
 570 0174 0DB4      		in __tmp_reg__,77-32
 571 0176 07FE      		sbrs __tmp_reg__,7
 572 0178 00C0      		rjmp .L32
 574               	.LM64:
 575 017a EC15      		cp r30,r12
 576 017c FD05      		cpc r31,r13
 577 017e 01F4      		brne .L33
 579               	.LM65:
 580 0180 409A      		sbi 40-32,0
 581 0182 2E5F      		subi r18,lo8(-(2))
 582 0184 3F4F      		sbci r19,hi8(-(2))
 112:../../../src/radio/cc2420/source/basic_rf.c ****     for(i=0; i<8; i++ )
 584               	.LM66:
 585 0186 F1E0      		ldi r31,hi8(272)
 586 0188 2031      		cpi r18,lo8(272)
 587 018a 3F07      		cpc r19,r31
 588 018c 01F4      		brne .L34
 117:../../../src/radio/cc2420/source/basic_rf.c ****     }
 118:../../../src/radio/cc2420/source/basic_rf.c **** 
 119:../../../src/radio/cc2420/source/basic_rf.c **** // Set AES nonce to all zeros
 120:../../../src/radio/cc2420/source/basic_rf.c ****     nrk_spin_wait_us(100);
 590               	.LM67:
 591 018e 84E6      		ldi r24,lo8(100)
 592 0190 90E0      		ldi r25,hi8(100)
 593 0192 0E94 0000 		call nrk_spin_wait_us
 594 0196 20E4      		ldi r18,lo8(320)
 595 0198 31E0      		ldi r19,hi8(320)
 596 019a 80E1      		ldi r24,lo8(272)
 597 019c 91E0      		ldi r25,hi8(272)
 598               	.L43:
 121:../../../src/radio/cc2420/source/basic_rf.c ****     for(i=0; i<7; i++ )
 122:../../../src/radio/cc2420/source/basic_rf.c ****     {
 123:../../../src/radio/cc2420/source/basic_rf.c ****         key_buf=0;
 600               	.LM68:
 601 019e 1A82      		std Y+2,__zero_reg__
 602 01a0 1982      		std Y+1,__zero_reg__
 124:../../../src/radio/cc2420/source/basic_rf.c ****         FASTSPI_WRITE_RAM_LE(&key_buf,(CC2420RAM_TXNONCE+(i*2)),2,n);
 604               	.LM69:
 605 01a2 4098      		cbi 40-32,0
 606 01a4 422F      		mov r20,r18
 607 01a6 4068      		ori r20,lo8(-128)
 608 01a8 4EBD      		out 78-32,r20
 609               	.L35:
 611               	.LM70:
 612 01aa 0DB4      		in __tmp_reg__,77-32
 613 01ac 07FE      		sbrs __tmp_reg__,7
 614 01ae 00C0      		rjmp .L35
 616               	.LM71:
 617 01b0 A901      		movw r20,r18
 618 01b2 5595      		asr r21
 619 01b4 4795      		ror r20
 620 01b6 407C      		andi r20,lo8(-64)
 621 01b8 4EBD      		out 78-32,r20
 622               	.L36:
 624               	.LM72:
 625 01ba 0DB4      		in __tmp_reg__,77-32
 626 01bc 07FE      		sbrs __tmp_reg__,7
 627 01be 00C0      		rjmp .L36
 629               	.LM73:
 630 01c0 F801      		movw r30,r16
 631               	.L38:
 633               	.LM74:
 634 01c2 4191      		ld r20,Z+
 635 01c4 4EBD      		out 78-32,r20
 636               	.L37:
 638               	.LM75:
 639 01c6 0DB4      		in __tmp_reg__,77-32
 640 01c8 07FE      		sbrs __tmp_reg__,7
 641 01ca 00C0      		rjmp .L37
 643               	.LM76:
 644 01cc EC15      		cp r30,r12
 645 01ce FD05      		cpc r31,r13
 646 01d0 01F4      		brne .L38
 648               	.LM77:
 649 01d2 409A      		sbi 40-32,0
 125:../../../src/radio/cc2420/source/basic_rf.c ****         FASTSPI_WRITE_RAM_LE(&key_buf,(CC2420RAM_RXNONCE+(i*2)),2,n);
 651               	.LM78:
 652 01d4 4098      		cbi 40-32,0
 653 01d6 482F      		mov r20,r24
 654 01d8 4068      		ori r20,lo8(-128)
 655 01da 4EBD      		out 78-32,r20
 656               	.L39:
 658               	.LM79:
 659 01dc 0DB4      		in __tmp_reg__,77-32
 660 01de 07FE      		sbrs __tmp_reg__,7
 661 01e0 00C0      		rjmp .L39
 663               	.LM80:
 664 01e2 AC01      		movw r20,r24
 665 01e4 5595      		asr r21
 666 01e6 4795      		ror r20
 667 01e8 407C      		andi r20,lo8(-64)
 668 01ea 4EBD      		out 78-32,r20
 669               	.L40:
 671               	.LM81:
 672 01ec 0DB4      		in __tmp_reg__,77-32
 673 01ee 07FE      		sbrs __tmp_reg__,7
 674 01f0 00C0      		rjmp .L40
 676               	.LM82:
 677 01f2 F801      		movw r30,r16
 678               	.L42:
 680               	.LM83:
 681 01f4 4191      		ld r20,Z+
 682 01f6 4EBD      		out 78-32,r20
 683               	.L41:
 685               	.LM84:
 686 01f8 0DB4      		in __tmp_reg__,77-32
 687 01fa 07FE      		sbrs __tmp_reg__,7
 688 01fc 00C0      		rjmp .L41
 690               	.LM85:
 691 01fe EC15      		cp r30,r12
 692 0200 FD05      		cpc r31,r13
 693 0202 01F4      		brne .L42
 695               	.LM86:
 696 0204 409A      		sbi 40-32,0
 697 0206 0296      		adiw r24,2
 698 0208 2E5F      		subi r18,lo8(-(2))
 699 020a 3F4F      		sbci r19,hi8(-(2))
 121:../../../src/radio/cc2420/source/basic_rf.c ****     for(i=0; i<7; i++ )
 701               	.LM87:
 702 020c 41E0      		ldi r20,hi8(286)
 703 020e 8E31      		cpi r24,lo8(286)
 704 0210 9407      		cpc r25,r20
 705 0212 01F4      		brne .L43
 126:../../../src/radio/cc2420/source/basic_rf.c ****     }
 127:../../../src/radio/cc2420/source/basic_rf.c ****     // block counter set 1
 128:../../../src/radio/cc2420/source/basic_rf.c ****     key_buf=1;
 707               	.LM88:
 708 0214 81E0      		ldi r24,lo8(1)
 709 0216 90E0      		ldi r25,hi8(1)
 710 0218 9A83      		std Y+2,r25
 711 021a 8983      		std Y+1,r24
 129:../../../src/radio/cc2420/source/basic_rf.c ****     FASTSPI_WRITE_RAM_LE(&key_buf,(CC2420RAM_TXNONCE+14),2,n);
 713               	.LM89:
 714 021c 4098      		cbi 40-32,0
 715 021e 8EEC      		ldi r24,lo8(-50)
 716 0220 8EBD      		out 78-32,r24
 717               	.L44:
 719               	.LM90:
 720 0222 0DB4      		in __tmp_reg__,77-32
 721 0224 07FE      		sbrs __tmp_reg__,7
 722 0226 00C0      		rjmp .L44
 724               	.LM91:
 725 0228 80E8      		ldi r24,lo8(-128)
 726 022a 8EBD      		out 78-32,r24
 727               	.L45:
 729               	.LM92:
 730 022c 0DB4      		in __tmp_reg__,77-32
 731 022e 07FE      		sbrs __tmp_reg__,7
 732 0230 00C0      		rjmp .L45
 105:../../../src/radio/cc2420/source/basic_rf.c **** void rf_security_set_key(uint8_t *key)
 734               	.LM93:
 735 0232 C801      		movw r24,r16
 736 0234 0296      		adiw r24,2
 737 0236 F801      		movw r30,r16
 738               	.L47:
 740               	.LM94:
 741 0238 2191      		ld r18,Z+
 742 023a 2EBD      		out 78-32,r18
 743               	.L46:
 745               	.LM95:
 746 023c 0DB4      		in __tmp_reg__,77-32
 747 023e 07FE      		sbrs __tmp_reg__,7
 748 0240 00C0      		rjmp .L46
 750               	.LM96:
 751 0242 E817      		cp r30,r24
 752 0244 F907      		cpc r31,r25
 753 0246 01F4      		brne .L47
 755               	.LM97:
 756 0248 409A      		sbi 40-32,0
 130:../../../src/radio/cc2420/source/basic_rf.c ****     FASTSPI_WRITE_RAM_LE(&key_buf,(CC2420RAM_RXNONCE+14),2,n);
 758               	.LM98:
 759 024a 4098      		cbi 40-32,0
 760 024c 8EE9      		ldi r24,lo8(-98)
 761 024e 8EBD      		out 78-32,r24
 762               	.L48:
 764               	.LM99:
 765 0250 0DB4      		in __tmp_reg__,77-32
 766 0252 07FE      		sbrs __tmp_reg__,7
 767 0254 00C0      		rjmp .L48
 769               	.LM100:
 770 0256 80E8      		ldi r24,lo8(-128)
 771 0258 8EBD      		out 78-32,r24
 772               	.L49:
 774               	.LM101:
 775 025a 0DB4      		in __tmp_reg__,77-32
 776 025c 07FE      		sbrs __tmp_reg__,7
 777 025e 00C0      		rjmp .L49
 105:../../../src/radio/cc2420/source/basic_rf.c **** void rf_security_set_key(uint8_t *key)
 779               	.LM102:
 780 0260 0E5F      		subi r16,lo8(-(2))
 781 0262 1F4F      		sbci r17,hi8(-(2))
 782               	.L51:
 784               	.LM103:
 785 0264 F501      		movw r30,r10
 786 0266 8191      		ld r24,Z+
 787 0268 5F01      		movw r10,r30
 788 026a 8EBD      		out 78-32,r24
 789               	.L50:
 791               	.LM104:
 792 026c 0DB4      		in __tmp_reg__,77-32
 793 026e 07FE      		sbrs __tmp_reg__,7
 794 0270 00C0      		rjmp .L50
 796               	.LM105:
 797 0272 A016      		cp r10,r16
 798 0274 B106      		cpc r11,r17
 799 0276 01F4      		brne .L51
 801               	.LM106:
 802 0278 409A      		sbi 40-32,0
 803               	/* epilogue start */
 131:../../../src/radio/cc2420/source/basic_rf.c **** }
 805               	.LM107:
 806 027a 0F90      		pop __tmp_reg__
 807 027c 0F90      		pop __tmp_reg__
 808 027e 0F90      		pop __tmp_reg__
 809 0280 0F90      		pop __tmp_reg__
 810 0282 CF91      		pop r28
 811 0284 DF91      		pop r29
 812 0286 1F91      		pop r17
 813 0288 0F91      		pop r16
 814 028a FF90      		pop r15
 815 028c EF90      		pop r14
 816 028e DF90      		pop r13
 817 0290 CF90      		pop r12
 818 0292 BF90      		pop r11
 819 0294 AF90      		pop r10
 820 0296 9F90      		pop r9
 821 0298 8F90      		pop r8
 822 029a 0895      		ret
 827               	.Lscope7:
 829               		.stabd	78,0,0
 832               	.global	rf_security_enable
 834               	rf_security_enable:
 835               		.stabd	46,0,0
 132:../../../src/radio/cc2420/source/basic_rf.c **** 
 133:../../../src/radio/cc2420/source/basic_rf.c **** void rf_security_enable(uint8_t *key)
 134:../../../src/radio/cc2420/source/basic_rf.c **** {
 837               	.LM108:
 838               	.LFBB8:
 839               	/* prologue: function */
 840               	/* frame size = 0 */
 841               	/* stack size = 0 */
 842               	.L__stack_usage = 0
 135:../../../src/radio/cc2420/source/basic_rf.c ****     FASTSPI_SETREG(CC2420_SECCTRL0, 0x0306); // Enable CTR encryption with key 0
 844               	.LM109:
 845 029c 4098      		cbi 40-32,0
 846 029e 89E1      		ldi r24,lo8(25)
 847 02a0 8EBD      		out 78-32,r24
 848               	.L75:
 850               	.LM110:
 851 02a2 0DB4      		in __tmp_reg__,77-32
 852 02a4 07FE      		sbrs __tmp_reg__,7
 853 02a6 00C0      		rjmp .L75
 855               	.LM111:
 856 02a8 83E0      		ldi r24,lo8(3)
 857 02aa 8EBD      		out 78-32,r24
 858               	.L76:
 860               	.LM112:
 861 02ac 0DB4      		in __tmp_reg__,77-32
 862 02ae 07FE      		sbrs __tmp_reg__,7
 863 02b0 00C0      		rjmp .L76
 865               	.LM113:
 866 02b2 86E0      		ldi r24,lo8(6)
 867 02b4 8EBD      		out 78-32,r24
 868               	.L77:
 870               	.LM114:
 871 02b6 0DB4      		in __tmp_reg__,77-32
 872 02b8 07FE      		sbrs __tmp_reg__,7
 873 02ba 00C0      		rjmp .L77
 875               	.LM115:
 876 02bc 409A      		sbi 40-32,0
 136:../../../src/radio/cc2420/source/basic_rf.c ****     FASTSPI_SETREG(CC2420_SECCTRL1, 0x0e0e); // Encrypt / Decrypt 18 bytes into header
 878               	.LM116:
 879 02be 4098      		cbi 40-32,0
 880 02c0 8AE1      		ldi r24,lo8(26)
 881 02c2 8EBD      		out 78-32,r24
 882               	.L78:
 884               	.LM117:
 885 02c4 0DB4      		in __tmp_reg__,77-32
 886 02c6 07FE      		sbrs __tmp_reg__,7
 887 02c8 00C0      		rjmp .L78
 889               	.LM118:
 890 02ca 8EE0      		ldi r24,lo8(14)
 891 02cc 8EBD      		out 78-32,r24
 892               	.L79:
 894               	.LM119:
 895 02ce 0DB4      		in __tmp_reg__,77-32
 896 02d0 07FE      		sbrs __tmp_reg__,7
 897 02d2 00C0      		rjmp .L79
 899               	.LM120:
 900 02d4 8EE0      		ldi r24,lo8(14)
 901 02d6 8EBD      		out 78-32,r24
 902               	.L80:
 904               	.LM121:
 905 02d8 0DB4      		in __tmp_reg__,77-32
 906 02da 07FE      		sbrs __tmp_reg__,7
 907 02dc 00C0      		rjmp .L80
 909               	.LM122:
 910 02de 409A      		sbi 40-32,0
 137:../../../src/radio/cc2420/source/basic_rf.c **** 
 138:../../../src/radio/cc2420/source/basic_rf.c ****     security_enable=1;
 912               	.LM123:
 913 02e0 81E0      		ldi r24,lo8(1)
 914 02e2 8093 0000 		sts security_enable,r24
 915               	/* epilogue start */
 139:../../../src/radio/cc2420/source/basic_rf.c **** }
 917               	.LM124:
 918 02e6 0895      		ret
 920               	.Lscope8:
 922               		.stabd	78,0,0
 924               	.global	rf_security_disable
 926               	rf_security_disable:
 927               		.stabd	46,0,0
 140:../../../src/radio/cc2420/source/basic_rf.c **** 
 141:../../../src/radio/cc2420/source/basic_rf.c **** 
 142:../../../src/radio/cc2420/source/basic_rf.c **** 
 143:../../../src/radio/cc2420/source/basic_rf.c **** void rf_security_disable()
 144:../../../src/radio/cc2420/source/basic_rf.c **** {
 929               	.LM125:
 930               	.LFBB9:
 931               	/* prologue: function */
 932               	/* frame size = 0 */
 933               	/* stack size = 0 */
 934               	.L__stack_usage = 0
 145:../../../src/radio/cc2420/source/basic_rf.c ****     FASTSPI_SETREG(CC2420_SECCTRL0, 0x01C4); // Turn off "Security enable"
 936               	.LM126:
 937 02e8 4098      		cbi 40-32,0
 938 02ea 89E1      		ldi r24,lo8(25)
 939 02ec 8EBD      		out 78-32,r24
 940               	.L88:
 942               	.LM127:
 943 02ee 0DB4      		in __tmp_reg__,77-32
 944 02f0 07FE      		sbrs __tmp_reg__,7
 945 02f2 00C0      		rjmp .L88
 947               	.LM128:
 948 02f4 81E0      		ldi r24,lo8(1)
 949 02f6 8EBD      		out 78-32,r24
 950               	.L89:
 952               	.LM129:
 953 02f8 0DB4      		in __tmp_reg__,77-32
 954 02fa 07FE      		sbrs __tmp_reg__,7
 955 02fc 00C0      		rjmp .L89
 957               	.LM130:
 958 02fe 84EC      		ldi r24,lo8(-60)
 959 0300 8EBD      		out 78-32,r24
 960               	.L90:
 962               	.LM131:
 963 0302 0DB4      		in __tmp_reg__,77-32
 964 0304 07FE      		sbrs __tmp_reg__,7
 965 0306 00C0      		rjmp .L90
 967               	.LM132:
 968 0308 409A      		sbi 40-32,0
 146:../../../src/radio/cc2420/source/basic_rf.c ****     security_enable=0;
 970               	.LM133:
 971 030a 1092 0000 		sts security_enable,__zero_reg__
 972               	/* epilogue start */
 147:../../../src/radio/cc2420/source/basic_rf.c **** }
 974               	.LM134:
 975 030e 0895      		ret
 977               	.Lscope9:
 979               		.stabd	78,0,0
 981               	.global	rf_get_sem
 983               	rf_get_sem:
 984               		.stabd	46,0,0
 148:../../../src/radio/cc2420/source/basic_rf.c **** 
 149:../../../src/radio/cc2420/source/basic_rf.c **** //-------------------------------------------------------------------------------------------------
 150:../../../src/radio/cc2420/source/basic_rf.c **** // The RF settings structure is declared here, since we'll always need halRfInit()
 151:../../../src/radio/cc2420/source/basic_rf.c **** volatile RF_SETTINGS rfSettings;
 152:../../../src/radio/cc2420/source/basic_rf.c **** volatile uint8_t rx_ready;
 153:../../../src/radio/cc2420/source/basic_rf.c **** //-------------------------------------------------------------------------------------------------
 154:../../../src/radio/cc2420/source/basic_rf.c **** nrk_sem_t* rf_get_sem()
 155:../../../src/radio/cc2420/source/basic_rf.c **** {
 986               	.LM135:
 987               	.LFBB10:
 988               	/* prologue: function */
 989               	/* frame size = 0 */
 990               	/* stack size = 0 */
 991               	.L__stack_usage = 0
 156:../../../src/radio/cc2420/source/basic_rf.c ****     return radio_sem;
 157:../../../src/radio/cc2420/source/basic_rf.c **** }
 993               	.LM136:
 994 0310 8091 0000 		lds r24,radio_sem
 995 0314 9091 0000 		lds r25,radio_sem+1
 996               	/* epilogue start */
 997 0318 0895      		ret
 999               	.Lscope10:
 1001               		.stabd	78,0,0
 1004               	.global	rf_tx_power
 1006               	rf_tx_power:
 1007               		.stabd	46,0,0
 158:../../../src/radio/cc2420/source/basic_rf.c **** 
 159:../../../src/radio/cc2420/source/basic_rf.c **** void rf_tx_power(uint8_t pwr)
 160:../../../src/radio/cc2420/source/basic_rf.c **** {
 1009               	.LM137:
 1010               	.LFBB11:
 1011 031a 1F93      		push r17
 1012               	/* prologue: function */
 1013               	/* frame size = 0 */
 1014               	/* stack size = 1 */
 1015               	.L__stack_usage = 1
 1016 031c 182F      		mov r17,r24
 161:../../../src/radio/cc2420/source/basic_rf.c ****     uint16_t tmp;
 162:../../../src/radio/cc2420/source/basic_rf.c ****     //tmp=0x5070;
 163:../../../src/radio/cc2420/source/basic_rf.c **** #ifdef RADIO_PRIORITY_CEILING
 164:../../../src/radio/cc2420/source/basic_rf.c ****     nrk_sem_pend (radio_sem);
 1018               	.LM138:
 1019 031e 8091 0000 		lds r24,radio_sem
 1020 0322 9091 0000 		lds r25,radio_sem+1
 1021 0326 0E94 0000 		call nrk_sem_pend
 165:../../../src/radio/cc2420/source/basic_rf.c **** #endif
 166:../../../src/radio/cc2420/source/basic_rf.c ****     tmp=0xA0E0;
 167:../../../src/radio/cc2420/source/basic_rf.c ****     tmp=tmp | (pwr&0x1F);
 1023               	.LM139:
 1024 032a 812F      		mov r24,r17
 1025 032c 90E0      		ldi r25,lo8(0)
 1026 032e 8F71      		andi r24,lo8(31)
 1027 0330 9070      		andi r25,hi8(31)
 1028 0332 806E      		ori r24,lo8(-24352)
 1029 0334 906A      		ori r25,hi8(-24352)
 168:../../../src/radio/cc2420/source/basic_rf.c ****     FASTSPI_SETREG(CC2420_TXCTRL, tmp);   // Set the FIFOP threshold to maximum
 1031               	.LM140:
 1032 0336 4098      		cbi 40-32,0
 1033 0338 25E1      		ldi r18,lo8(21)
 1034 033a 2EBD      		out 78-32,r18
 1035               	.L96:
 1037               	.LM141:
 1038 033c 0DB4      		in __tmp_reg__,77-32
 1039 033e 07FE      		sbrs __tmp_reg__,7
 1040 0340 00C0      		rjmp .L96
 1042               	.LM142:
 1043 0342 9EBD      		out 78-32,r25
 1044               	.L97:
 1046               	.LM143:
 1047 0344 0DB4      		in __tmp_reg__,77-32
 1048 0346 07FE      		sbrs __tmp_reg__,7
 1049 0348 00C0      		rjmp .L97
 1051               	.LM144:
 1052 034a 8EBD      		out 78-32,r24
 1053               	.L98:
 1055               	.LM145:
 1056 034c 0DB4      		in __tmp_reg__,77-32
 1057 034e 07FE      		sbrs __tmp_reg__,7
 1058 0350 00C0      		rjmp .L98
 1060               	.LM146:
 1061 0352 409A      		sbi 40-32,0
 169:../../../src/radio/cc2420/source/basic_rf.c **** #ifdef RADIO_PRIORITY_CEILING
 170:../../../src/radio/cc2420/source/basic_rf.c ****     nrk_sem_post(radio_sem);
 1063               	.LM147:
 1064 0354 8091 0000 		lds r24,radio_sem
 1065 0358 9091 0000 		lds r25,radio_sem+1
 1066 035c 0E94 0000 		call nrk_sem_post
 1067               	/* epilogue start */
 171:../../../src/radio/cc2420/source/basic_rf.c **** #endif
 172:../../../src/radio/cc2420/source/basic_rf.c **** }
 1069               	.LM148:
 1070 0360 1F91      		pop r17
 1071 0362 0895      		ret
 1076               	.Lscope11:
 1078               		.stabd	78,0,0
 1081               	.global	rf_set_channel
 1083               	rf_set_channel:
 1084               		.stabd	46,0,0
 173:../../../src/radio/cc2420/source/basic_rf.c **** void rf_set_channel( uint8_t channel )
 174:../../../src/radio/cc2420/source/basic_rf.c **** {
 1086               	.LM149:
 1087               	.LFBB12:
 1088 0364 1F93      		push r17
 1089               	/* prologue: function */
 1090               	/* frame size = 0 */
 1091               	/* stack size = 1 */
 1092               	.L__stack_usage = 1
 1093 0366 182F      		mov r17,r24
 175:../../../src/radio/cc2420/source/basic_rf.c **** #ifdef RADIO_PRIORITY_CEILING
 176:../../../src/radio/cc2420/source/basic_rf.c ****     nrk_sem_pend (radio_sem);
 1095               	.LM150:
 1096 0368 8091 0000 		lds r24,radio_sem
 1097 036c 9091 0000 		lds r25,radio_sem+1
 1098 0370 0E94 0000 		call nrk_sem_pend
 177:../../../src/radio/cc2420/source/basic_rf.c **** #endif
 178:../../../src/radio/cc2420/source/basic_rf.c ****     halRfSetChannel(channel);
 1100               	.LM151:
 1101 0374 812F      		mov r24,r17
 1102 0376 0E94 0000 		call halRfSetChannel
 179:../../../src/radio/cc2420/source/basic_rf.c **** #ifdef RADIO_PRIORITY_CEILING
 180:../../../src/radio/cc2420/source/basic_rf.c ****     nrk_sem_post(radio_sem);
 1104               	.LM152:
 1105 037a 8091 0000 		lds r24,radio_sem
 1106 037e 9091 0000 		lds r25,radio_sem+1
 1107 0382 0E94 0000 		call nrk_sem_post
 1108               	/* epilogue start */
 181:../../../src/radio/cc2420/source/basic_rf.c **** #endif
 182:../../../src/radio/cc2420/source/basic_rf.c **** }
 1110               	.LM153:
 1111 0386 1F91      		pop r17
 1112 0388 0895      		ret
 1114               	.Lscope12:
 1116               		.stabd	78,0,0
 1118               	.global	rf_addr_decode_enable
 1120               	rf_addr_decode_enable:
 1121               		.stabd	46,0,0
 183:../../../src/radio/cc2420/source/basic_rf.c **** 
 184:../../../src/radio/cc2420/source/basic_rf.c **** 
 185:../../../src/radio/cc2420/source/basic_rf.c **** void rf_addr_decode_enable()
 186:../../../src/radio/cc2420/source/basic_rf.c **** {
 1123               	.LM154:
 1124               	.LFBB13:
 1125               	/* prologue: function */
 1126               	/* frame size = 0 */
 1127               	/* stack size = 0 */
 1128               	.L__stack_usage = 0
 187:../../../src/radio/cc2420/source/basic_rf.c ****     mdmctrl0 |= 0x0800;
 1130               	.LM155:
 1131 038a 8091 0000 		lds r24,mdmctrl0
 1132 038e 9091 0000 		lds r25,mdmctrl0+1
 1133 0392 9860      		ori r25,hi8(2048)
 1134 0394 9093 0000 		sts mdmctrl0+1,r25
 1135 0398 8093 0000 		sts mdmctrl0,r24
 188:../../../src/radio/cc2420/source/basic_rf.c ****     FASTSPI_SETREG(CC2420_MDMCTRL0, mdmctrl0);
 1137               	.LM156:
 1138 039c 4098      		cbi 40-32,0
 1139 039e 81E1      		ldi r24,lo8(17)
 1140 03a0 8EBD      		out 78-32,r24
 1141               	.L104:
 1143               	.LM157:
 1144 03a2 0DB4      		in __tmp_reg__,77-32
 1145 03a4 07FE      		sbrs __tmp_reg__,7
 1146 03a6 00C0      		rjmp .L104
 1148               	.LM158:
 1149 03a8 8091 0000 		lds r24,mdmctrl0+1
 1150 03ac 8EBD      		out 78-32,r24
 1151               	.L105:
 1153               	.LM159:
 1154 03ae 0DB4      		in __tmp_reg__,77-32
 1155 03b0 07FE      		sbrs __tmp_reg__,7
 1156 03b2 00C0      		rjmp .L105
 1158               	.LM160:
 1159 03b4 8091 0000 		lds r24,mdmctrl0
 1160 03b8 8EBD      		out 78-32,r24
 1161               	.L106:
 1163               	.LM161:
 1164 03ba 0DB4      		in __tmp_reg__,77-32
 1165 03bc 07FE      		sbrs __tmp_reg__,7
 1166 03be 00C0      		rjmp .L106
 1168               	.LM162:
 1169 03c0 409A      		sbi 40-32,0
 1170               	/* epilogue start */
 189:../../../src/radio/cc2420/source/basic_rf.c **** }
 1172               	.LM163:
 1173 03c2 0895      		ret
 1175               	.Lscope13:
 1177               		.stabd	78,0,0
 1179               	.global	rf_addr_decode_disable
 1181               	rf_addr_decode_disable:
 1182               		.stabd	46,0,0
 190:../../../src/radio/cc2420/source/basic_rf.c **** 
 191:../../../src/radio/cc2420/source/basic_rf.c **** void rf_addr_decode_disable()
 192:../../../src/radio/cc2420/source/basic_rf.c **** {
 1184               	.LM164:
 1185               	.LFBB14:
 1186               	/* prologue: function */
 1187               	/* frame size = 0 */
 1188               	/* stack size = 0 */
 1189               	.L__stack_usage = 0
 193:../../../src/radio/cc2420/source/basic_rf.c ****     mdmctrl0 &= (~0x0800);
 1191               	.LM165:
 1192 03c4 8091 0000 		lds r24,mdmctrl0
 1193 03c8 9091 0000 		lds r25,mdmctrl0+1
 1194 03cc 977F      		andi r25,hi8(-2049)
 1195 03ce 9093 0000 		sts mdmctrl0+1,r25
 1196 03d2 8093 0000 		sts mdmctrl0,r24
 194:../../../src/radio/cc2420/source/basic_rf.c ****     FASTSPI_SETREG(CC2420_MDMCTRL0, mdmctrl0);
 1198               	.LM166:
 1199 03d6 4098      		cbi 40-32,0
 1200 03d8 81E1      		ldi r24,lo8(17)
 1201 03da 8EBD      		out 78-32,r24
 1202               	.L111:
 1204               	.LM167:
 1205 03dc 0DB4      		in __tmp_reg__,77-32
 1206 03de 07FE      		sbrs __tmp_reg__,7
 1207 03e0 00C0      		rjmp .L111
 1209               	.LM168:
 1210 03e2 8091 0000 		lds r24,mdmctrl0+1
 1211 03e6 8EBD      		out 78-32,r24
 1212               	.L112:
 1214               	.LM169:
 1215 03e8 0DB4      		in __tmp_reg__,77-32
 1216 03ea 07FE      		sbrs __tmp_reg__,7
 1217 03ec 00C0      		rjmp .L112
 1219               	.LM170:
 1220 03ee 8091 0000 		lds r24,mdmctrl0
 1221 03f2 8EBD      		out 78-32,r24
 1222               	.L113:
 1224               	.LM171:
 1225 03f4 0DB4      		in __tmp_reg__,77-32
 1226 03f6 07FE      		sbrs __tmp_reg__,7
 1227 03f8 00C0      		rjmp .L113
 1229               	.LM172:
 1230 03fa 409A      		sbi 40-32,0
 1231               	/* epilogue start */
 195:../../../src/radio/cc2420/source/basic_rf.c **** }
 1233               	.LM173:
 1234 03fc 0895      		ret
 1236               	.Lscope14:
 1238               		.stabd	78,0,0
 1240               	.global	rf_auto_ack_enable
 1242               	rf_auto_ack_enable:
 1243               		.stabd	46,0,0
 196:../../../src/radio/cc2420/source/basic_rf.c **** 
 197:../../../src/radio/cc2420/source/basic_rf.c **** 
 198:../../../src/radio/cc2420/source/basic_rf.c **** void rf_auto_ack_enable()
 199:../../../src/radio/cc2420/source/basic_rf.c **** {
 1245               	.LM174:
 1246               	.LFBB15:
 1247               	/* prologue: function */
 1248               	/* frame size = 0 */
 1249               	/* stack size = 0 */
 1250               	.L__stack_usage = 0
 200:../../../src/radio/cc2420/source/basic_rf.c ****     auto_ack_enable=1;
 1252               	.LM175:
 1253 03fe 81E0      		ldi r24,lo8(1)
 1254 0400 8093 0000 		sts auto_ack_enable,r24
 201:../../../src/radio/cc2420/source/basic_rf.c ****     mdmctrl0 |= 0x0010;
 1256               	.LM176:
 1257 0404 8091 0000 		lds r24,mdmctrl0
 1258 0408 9091 0000 		lds r25,mdmctrl0+1
 1259 040c 8061      		ori r24,lo8(16)
 1260 040e 9093 0000 		sts mdmctrl0+1,r25
 1261 0412 8093 0000 		sts mdmctrl0,r24
 202:../../../src/radio/cc2420/source/basic_rf.c ****     FASTSPI_SETREG(CC2420_MDMCTRL0, mdmctrl0);
 1263               	.LM177:
 1264 0416 4098      		cbi 40-32,0
 1265 0418 81E1      		ldi r24,lo8(17)
 1266 041a 8EBD      		out 78-32,r24
 1267               	.L118:
 1269               	.LM178:
 1270 041c 0DB4      		in __tmp_reg__,77-32
 1271 041e 07FE      		sbrs __tmp_reg__,7
 1272 0420 00C0      		rjmp .L118
 1274               	.LM179:
 1275 0422 8091 0000 		lds r24,mdmctrl0+1
 1276 0426 8EBD      		out 78-32,r24
 1277               	.L119:
 1279               	.LM180:
 1280 0428 0DB4      		in __tmp_reg__,77-32
 1281 042a 07FE      		sbrs __tmp_reg__,7
 1282 042c 00C0      		rjmp .L119
 1284               	.LM181:
 1285 042e 8091 0000 		lds r24,mdmctrl0
 1286 0432 8EBD      		out 78-32,r24
 1287               	.L120:
 1289               	.LM182:
 1290 0434 0DB4      		in __tmp_reg__,77-32
 1291 0436 07FE      		sbrs __tmp_reg__,7
 1292 0438 00C0      		rjmp .L120
 1294               	.LM183:
 1295 043a 409A      		sbi 40-32,0
 1296               	/* epilogue start */
 203:../../../src/radio/cc2420/source/basic_rf.c **** }
 1298               	.LM184:
 1299 043c 0895      		ret
 1301               	.Lscope15:
 1303               		.stabd	78,0,0
 1305               	.global	rf_auto_ack_disable
 1307               	rf_auto_ack_disable:
 1308               		.stabd	46,0,0
 204:../../../src/radio/cc2420/source/basic_rf.c **** 
 205:../../../src/radio/cc2420/source/basic_rf.c **** void rf_auto_ack_disable()
 206:../../../src/radio/cc2420/source/basic_rf.c **** {
 1310               	.LM185:
 1311               	.LFBB16:
 1312               	/* prologue: function */
 1313               	/* frame size = 0 */
 1314               	/* stack size = 0 */
 1315               	.L__stack_usage = 0
 207:../../../src/radio/cc2420/source/basic_rf.c ****     auto_ack_enable=0;
 1317               	.LM186:
 1318 043e 1092 0000 		sts auto_ack_enable,__zero_reg__
 208:../../../src/radio/cc2420/source/basic_rf.c ****     mdmctrl0 &= (~0x0010);
 1320               	.LM187:
 1321 0442 8091 0000 		lds r24,mdmctrl0
 1322 0446 9091 0000 		lds r25,mdmctrl0+1
 1323 044a 8F7E      		andi r24,lo8(-17)
 1324 044c 9093 0000 		sts mdmctrl0+1,r25
 1325 0450 8093 0000 		sts mdmctrl0,r24
 209:../../../src/radio/cc2420/source/basic_rf.c ****     FASTSPI_SETREG(CC2420_MDMCTRL0, mdmctrl0);
 1327               	.LM188:
 1328 0454 4098      		cbi 40-32,0
 1329 0456 81E1      		ldi r24,lo8(17)
 1330 0458 8EBD      		out 78-32,r24
 1331               	.L125:
 1333               	.LM189:
 1334 045a 0DB4      		in __tmp_reg__,77-32
 1335 045c 07FE      		sbrs __tmp_reg__,7
 1336 045e 00C0      		rjmp .L125
 1338               	.LM190:
 1339 0460 8091 0000 		lds r24,mdmctrl0+1
 1340 0464 8EBD      		out 78-32,r24
 1341               	.L126:
 1343               	.LM191:
 1344 0466 0DB4      		in __tmp_reg__,77-32
 1345 0468 07FE      		sbrs __tmp_reg__,7
 1346 046a 00C0      		rjmp .L126
 1348               	.LM192:
 1349 046c 8091 0000 		lds r24,mdmctrl0
 1350 0470 8EBD      		out 78-32,r24
 1351               	.L127:
 1353               	.LM193:
 1354 0472 0DB4      		in __tmp_reg__,77-32
 1355 0474 07FE      		sbrs __tmp_reg__,7
 1356 0476 00C0      		rjmp .L127
 1358               	.LM194:
 1359 0478 409A      		sbi 40-32,0
 1360               	/* epilogue start */
 210:../../../src/radio/cc2420/source/basic_rf.c **** }
 1362               	.LM195:
 1363 047a 0895      		ret
 1365               	.Lscope16:
 1367               		.stabd	78,0,0
 1370               	.global	rf_addr_decode_set_my_mac
 1372               	rf_addr_decode_set_my_mac:
 1373               		.stabd	46,0,0
 211:../../../src/radio/cc2420/source/basic_rf.c **** 
 212:../../../src/radio/cc2420/source/basic_rf.c **** 
 213:../../../src/radio/cc2420/source/basic_rf.c **** void rf_addr_decode_set_my_mac(uint16_t my_mac)
 214:../../../src/radio/cc2420/source/basic_rf.c **** {
 1375               	.LM196:
 1376               	.LFBB17:
 1377 047c DF93      		push r29
 1378 047e CF93      		push r28
 1379 0480 00D0      		rcall .
 1380 0482 CDB7      		in r28,__SP_L__
 1381 0484 DEB7      		in r29,__SP_H__
 1382               	/* prologue: function */
 1383               	/* frame size = 2 */
 1384               	/* stack size = 4 */
 1385               	.L__stack_usage = 4
 1386 0486 9A83      		std Y+2,r25
 1387 0488 8983      		std Y+1,r24
 215:../../../src/radio/cc2420/source/basic_rf.c ****     uint8_t n;
 216:../../../src/radio/cc2420/source/basic_rf.c ****     rfSettings.myAddr = my_mac;
 1389               	.LM197:
 1390 048a 9093 0000 		sts rfSettings+6+1,r25
 1391 048e 8093 0000 		sts rfSettings+6,r24
 217:../../../src/radio/cc2420/source/basic_rf.c ****     nrk_spin_wait_us(500);
 1393               	.LM198:
 1394 0492 84EF      		ldi r24,lo8(500)
 1395 0494 91E0      		ldi r25,hi8(500)
 1396 0496 0E94 0000 		call nrk_spin_wait_us
 218:../../../src/radio/cc2420/source/basic_rf.c ****     FASTSPI_WRITE_RAM_LE(&my_mac, CC2420RAM_SHORTADDR, 2, n);
 1398               	.LM199:
 1399 049a 4098      		cbi 40-32,0
 1400 049c 8AEE      		ldi r24,lo8(-22)
 1401 049e 8EBD      		out 78-32,r24
 1402               	.L132:
 1404               	.LM200:
 1405 04a0 0DB4      		in __tmp_reg__,77-32
 1406 04a2 07FE      		sbrs __tmp_reg__,7
 1407 04a4 00C0      		rjmp .L132
 1409               	.LM201:
 1410 04a6 80E8      		ldi r24,lo8(-128)
 1411 04a8 8EBD      		out 78-32,r24
 1412               	.L133:
 1414               	.LM202:
 1415 04aa 0DB4      		in __tmp_reg__,77-32
 1416 04ac 07FE      		sbrs __tmp_reg__,7
 1417 04ae 00C0      		rjmp .L133
 1419               	.LM203:
 1420 04b0 FE01      		movw r30,r28
 1421 04b2 3196      		adiw r30,1
 213:../../../src/radio/cc2420/source/basic_rf.c **** void rf_addr_decode_set_my_mac(uint16_t my_mac)
 1423               	.LM204:
 1424 04b4 CE01      		movw r24,r28
 1425 04b6 0396      		adiw r24,3
 1426               	.L135:
 1428               	.LM205:
 1429 04b8 2191      		ld r18,Z+
 1430 04ba 2EBD      		out 78-32,r18
 1431               	.L134:
 1433               	.LM206:
 1434 04bc 0DB4      		in __tmp_reg__,77-32
 1435 04be 07FE      		sbrs __tmp_reg__,7
 1436 04c0 00C0      		rjmp .L134
 1438               	.LM207:
 1439 04c2 E817      		cp r30,r24
 1440 04c4 F907      		cpc r31,r25
 1441 04c6 01F4      		brne .L135
 1443               	.LM208:
 1444 04c8 409A      		sbi 40-32,0
 219:../../../src/radio/cc2420/source/basic_rf.c ****     nrk_spin_wait_us(500);
 1446               	.LM209:
 1447 04ca 84EF      		ldi r24,lo8(500)
 1448 04cc 91E0      		ldi r25,hi8(500)
 1449 04ce 0E94 0000 		call nrk_spin_wait_us
 1450               	/* epilogue start */
 220:../../../src/radio/cc2420/source/basic_rf.c **** }
 1452               	.LM210:
 1453 04d2 0F90      		pop __tmp_reg__
 1454 04d4 0F90      		pop __tmp_reg__
 1455 04d6 CF91      		pop r28
 1456 04d8 DF91      		pop r29
 1457 04da 0895      		ret
 1459               	.Lscope17:
 1461               		.stabd	78,0,0
 1465               	.global	rf_set_rx
 1467               	rf_set_rx:
 1468               		.stabd	46,0,0
 221:../../../src/radio/cc2420/source/basic_rf.c **** 
 222:../../../src/radio/cc2420/source/basic_rf.c **** 
 223:../../../src/radio/cc2420/source/basic_rf.c **** 
 224:../../../src/radio/cc2420/source/basic_rf.c **** void rf_set_rx(RF_RX_INFO *pRRI, uint8_t channel )
 225:../../../src/radio/cc2420/source/basic_rf.c **** {
 1470               	.LM211:
 1471               	.LFBB18:
 1472 04dc 0F93      		push r16
 1473 04de 1F93      		push r17
 1474 04e0 DF93      		push r29
 1475 04e2 CF93      		push r28
 1476 04e4 0F92      		push __tmp_reg__
 1477 04e6 CDB7      		in r28,__SP_L__
 1478 04e8 DEB7      		in r29,__SP_H__
 1479               	/* prologue: function */
 1480               	/* frame size = 1 */
 1481               	/* stack size = 5 */
 1482               	.L__stack_usage = 5
 1483 04ea 8C01      		movw r16,r24
 226:../../../src/radio/cc2420/source/basic_rf.c **** 
 227:../../../src/radio/cc2420/source/basic_rf.c **** #ifdef RADIO_PRIORITY_CEILING
 228:../../../src/radio/cc2420/source/basic_rf.c ****     nrk_sem_pend (radio_sem);
 1485               	.LM212:
 1486 04ec 8091 0000 		lds r24,radio_sem
 1487 04f0 9091 0000 		lds r25,radio_sem+1
 1488 04f4 6983      		std Y+1,r22
 1489 04f6 0E94 0000 		call nrk_sem_pend
 229:../../../src/radio/cc2420/source/basic_rf.c **** #endif
 230:../../../src/radio/cc2420/source/basic_rf.c **** 
 231:../../../src/radio/cc2420/source/basic_rf.c ****     FASTSPI_STROBE(CC2420_SFLUSHRX);
 1491               	.LM213:
 1492 04fa 4098      		cbi 40-32,0
 1493 04fc 88E0      		ldi r24,lo8(8)
 1494 04fe 8EBD      		out 78-32,r24
 1495 0500 6981      		ldd r22,Y+1
 1496               	.L141:
 1498               	.LM214:
 1499 0502 0DB4      		in __tmp_reg__,77-32
 1500 0504 07FE      		sbrs __tmp_reg__,7
 1501 0506 00C0      		rjmp .L141
 1503               	.LM215:
 1504 0508 409A      		sbi 40-32,0
 232:../../../src/radio/cc2420/source/basic_rf.c ****     FASTSPI_STROBE(CC2420_SFLUSHRX);
 1506               	.LM216:
 1507 050a 4098      		cbi 40-32,0
 1508 050c 88E0      		ldi r24,lo8(8)
 1509 050e 8EBD      		out 78-32,r24
 1510               	.L142:
 1512               	.LM217:
 1513 0510 0DB4      		in __tmp_reg__,77-32
 1514 0512 07FE      		sbrs __tmp_reg__,7
 1515 0514 00C0      		rjmp .L142
 1517               	.LM218:
 1518 0516 409A      		sbi 40-32,0
 233:../../../src/radio/cc2420/source/basic_rf.c ****     halRfSetChannel(channel);
 1520               	.LM219:
 1521 0518 862F      		mov r24,r22
 1522 051a 0E94 0000 		call halRfSetChannel
 234:../../../src/radio/cc2420/source/basic_rf.c ****     rfSettings.pRxInfo = pRRI;
 1524               	.LM220:
 1525 051e 1093 0000 		sts rfSettings+1,r17
 1526 0522 0093 0000 		sts rfSettings,r16
 235:../../../src/radio/cc2420/source/basic_rf.c **** 
 236:../../../src/radio/cc2420/source/basic_rf.c **** #ifdef RADIO_PRIORITY_CEILING
 237:../../../src/radio/cc2420/source/basic_rf.c ****     nrk_sem_post(radio_sem);
 1528               	.LM221:
 1529 0526 8091 0000 		lds r24,radio_sem
 1530 052a 9091 0000 		lds r25,radio_sem+1
 1531 052e 0E94 0000 		call nrk_sem_post
 1532               	/* epilogue start */
 238:../../../src/radio/cc2420/source/basic_rf.c **** #endif
 239:../../../src/radio/cc2420/source/basic_rf.c **** }
 1534               	.LM222:
 1535 0532 0F90      		pop __tmp_reg__
 1536 0534 CF91      		pop r28
 1537 0536 DF91      		pop r29
 1538 0538 1F91      		pop r17
 1539 053a 0F91      		pop r16
 1540 053c 0895      		ret
 1542               	.Lscope18:
 1544               		.stabd	78,0,0
 1550               	.global	rf_init
 1552               	rf_init:
 1553               		.stabd	46,0,0
 240:../../../src/radio/cc2420/source/basic_rf.c **** //-------------------------------------------------------------------------------------------------
 241:../../../src/radio/cc2420/source/basic_rf.c **** //  void rf_init(RF_RX_INFO *pRRI, uint8_t channel, WORD panId, WORD myAddr)
 242:../../../src/radio/cc2420/source/basic_rf.c **** //
 243:../../../src/radio/cc2420/source/basic_rf.c **** //  DESCRIPTION:
 244:../../../src/radio/cc2420/source/basic_rf.c **** //      Initializes CC2420 for radio communication via the basic RF library functions. Turns on the
 245:../../../src/radio/cc2420/source/basic_rf.c **** //		voltage regulator, resets the CC2420, turns on the crystal oscillator, writes all necessary
 246:../../../src/radio/cc2420/source/basic_rf.c **** //		registers and protocol addresses (for automatic address recognition). Note that the crystal
 247:../../../src/radio/cc2420/source/basic_rf.c **** //		oscillator will remain on (forever).
 248:../../../src/radio/cc2420/source/basic_rf.c **** //
 249:../../../src/radio/cc2420/source/basic_rf.c **** //  ARGUMENTS:
 250:../../../src/radio/cc2420/source/basic_rf.c **** //      RF_RX_INFO *pRRI
 251:../../../src/radio/cc2420/source/basic_rf.c **** //          A pointer the RF_RX_INFO data structure to be used during the first packet reception.
 252:../../../src/radio/cc2420/source/basic_rf.c **** //			The structure can be switched upon packet reception.
 253:../../../src/radio/cc2420/source/basic_rf.c **** //      uint8_t channel
 254:../../../src/radio/cc2420/source/basic_rf.c **** //          The RF channel to be used (11 = 2405 MHz to 26 = 2480 MHz)
 255:../../../src/radio/cc2420/source/basic_rf.c **** //      WORD panId
 256:../../../src/radio/cc2420/source/basic_rf.c **** //          The personal area network identification number
 257:../../../src/radio/cc2420/source/basic_rf.c **** //      WORD myAddr
 258:../../../src/radio/cc2420/source/basic_rf.c **** //          The 16-bit short address which is used by this node. Must together with the PAN ID form
 259:../../../src/radio/cc2420/source/basic_rf.c **** //			unique 32-bit identifier to avoid addressing conflicts. Normally, in a 802.15.4 network, the
 260:../../../src/radio/cc2420/source/basic_rf.c **** //			short address will be given to associated nodes by the PAN coordinator.
 261:../../../src/radio/cc2420/source/basic_rf.c **** //-------------------------------------------------------------------------------------------------
 262:../../../src/radio/cc2420/source/basic_rf.c **** void rf_init(RF_RX_INFO *pRRI, uint8_t channel, uint16_t panId, uint16_t myAddr)
 263:../../../src/radio/cc2420/source/basic_rf.c **** {
 1555               	.LM223:
 1556               	.LFBB19:
 1557 053e DF92      		push r13
 1558 0540 EF92      		push r14
 1559 0542 FF92      		push r15
 1560 0544 0F93      		push r16
 1561 0546 1F93      		push r17
 1562 0548 DF93      		push r29
 1563 054a CF93      		push r28
 1564 054c 00D0      		rcall .
 1565 054e CDB7      		in r28,__SP_L__
 1566 0550 DEB7      		in r29,__SP_H__
 1567               	/* prologue: function */
 1568               	/* frame size = 2 */
 1569               	/* stack size = 9 */
 1570               	.L__stack_usage = 9
 1571 0552 7C01      		movw r14,r24
 1572 0554 D62E      		mov r13,r22
 1573 0556 5A83      		std Y+2,r21
 1574 0558 4983      		std Y+1,r20
 1575 055a 8901      		movw r16,r18
 264:../../../src/radio/cc2420/source/basic_rf.c ****     uint8_t n;
 265:../../../src/radio/cc2420/source/basic_rf.c **** 
 266:../../../src/radio/cc2420/source/basic_rf.c **** #ifdef RADIO_PRIORITY_CEILING
 267:../../../src/radio/cc2420/source/basic_rf.c ****     int8_t v;
 268:../../../src/radio/cc2420/source/basic_rf.c ****     radio_sem = nrk_sem_create(1,RADIO_PRIORITY_CEILING);
 1577               	.LM224:
 1578 055c 81E0      		ldi r24,lo8(1)
 1579 055e 64E1      		ldi r22,lo8(20)
 1580 0560 0E94 0000 		call nrk_sem_create
 1581 0564 9093 0000 		sts radio_sem+1,r25
 1582 0568 8093 0000 		sts radio_sem,r24
 269:../../../src/radio/cc2420/source/basic_rf.c ****     if (radio_sem == NULL)
 1584               	.LM225:
 1585 056c 0097      		sbiw r24,0
 1586 056e 01F4      		brne .L146
 270:../../../src/radio/cc2420/source/basic_rf.c ****         nrk_kernel_error_add (NRK_SEMAPHORE_CREATE_ERROR, nrk_get_pid ());
 1588               	.LM226:
 1589 0570 0E94 0000 		call nrk_get_pid
 1590 0574 682F      		mov r22,r24
 1591 0576 8FE0      		ldi r24,lo8(15)
 1592 0578 0E94 0000 		call nrk_kernel_error_add
 1593               	.L146:
 271:../../../src/radio/cc2420/source/basic_rf.c **** 
 272:../../../src/radio/cc2420/source/basic_rf.c ****     v = nrk_sem_pend (radio_sem);
 1595               	.LM227:
 1596 057c 8091 0000 		lds r24,radio_sem
 1597 0580 9091 0000 		lds r25,radio_sem+1
 1598 0584 0E94 0000 		call nrk_sem_pend
 273:../../../src/radio/cc2420/source/basic_rf.c ****     if (v == NRK_ERROR)
 1600               	.LM228:
 1601 0588 8F3F      		cpi r24,lo8(-1)
 1602 058a 01F4      		brne .L147
 274:../../../src/radio/cc2420/source/basic_rf.c ****     {
 275:../../../src/radio/cc2420/source/basic_rf.c ****         nrk_kprintf (PSTR ("CC2420 ERROR:  Access to semaphore failed\r\n"));
 1604               	.LM229:
 1605 058c 80E0      		ldi r24,lo8(__c.2371)
 1606 058e 90E0      		ldi r25,hi8(__c.2371)
 1607 0590 0E94 0000 		call nrk_kprintf
 1608               	.L147:
 276:../../../src/radio/cc2420/source/basic_rf.c ****     }
 277:../../../src/radio/cc2420/source/basic_rf.c **** #endif
 278:../../../src/radio/cc2420/source/basic_rf.c **** 
 279:../../../src/radio/cc2420/source/basic_rf.c ****     // Make sure that the voltage regulator is on, and that the reset pin is inactive
 280:../../../src/radio/cc2420/source/basic_rf.c ****     SET_VREG_ACTIVE();
 1610               	.LM230:
 1611 0594 159A      		sbi 34-32,5
 281:../../../src/radio/cc2420/source/basic_rf.c ****     halWait(1000);
 1613               	.LM231:
 1614 0596 88EE      		ldi r24,lo8(1000)
 1615 0598 93E0      		ldi r25,hi8(1000)
 1616 059a 0E94 0000 		call halWait
 282:../../../src/radio/cc2420/source/basic_rf.c ****     SET_RESET_ACTIVE();
 1618               	.LM232:
 1619 059e 1698      		cbi 34-32,6
 283:../../../src/radio/cc2420/source/basic_rf.c ****     halWait(1);
 1621               	.LM233:
 1622 05a0 81E0      		ldi r24,lo8(1)
 1623 05a2 90E0      		ldi r25,hi8(1)
 1624 05a4 0E94 0000 		call halWait
 284:../../../src/radio/cc2420/source/basic_rf.c ****     SET_RESET_INACTIVE();
 1626               	.LM234:
 1627 05a8 169A      		sbi 34-32,6
 285:../../../src/radio/cc2420/source/basic_rf.c ****     halWait(100);
 1629               	.LM235:
 1630 05aa 84E6      		ldi r24,lo8(100)
 1631 05ac 90E0      		ldi r25,hi8(100)
 1632 05ae 0E94 0000 		call halWait
 286:../../../src/radio/cc2420/source/basic_rf.c **** 
 287:../../../src/radio/cc2420/source/basic_rf.c ****     // Initialize the FIFOP external interrupt
 288:../../../src/radio/cc2420/source/basic_rf.c ****     //FIFOP_INT_INIT();
 289:../../../src/radio/cc2420/source/basic_rf.c ****     //ENABLE_FIFOP_INT();
 290:../../../src/radio/cc2420/source/basic_rf.c **** 
 291:../../../src/radio/cc2420/source/basic_rf.c ****     // Turn off all interrupts while we're accessing the CC2420 registers
 292:../../../src/radio/cc2420/source/basic_rf.c ****     DISABLE_GLOBAL_INT();
 1634               	.LM236:
 1635               	/* #APP */
 1636               	 ;  292 "../../../src/radio/cc2420/source/basic_rf.c" 1
 1637 05b2 F894      		cli
 1638               		
 1639               	 ;  0 "" 2
 293:../../../src/radio/cc2420/source/basic_rf.c **** 
 294:../../../src/radio/cc2420/source/basic_rf.c ****     FASTSPI_STROBE(CC2420_SXOSCON);
 1641               	.LM237:
 1642               	/* #NOAPP */
 1643 05b4 4098      		cbi 40-32,0
 1644 05b6 81E0      		ldi r24,lo8(1)
 1645 05b8 8EBD      		out 78-32,r24
 1646               	.L148:
 1648               	.LM238:
 1649 05ba 0DB4      		in __tmp_reg__,77-32
 1650 05bc 07FE      		sbrs __tmp_reg__,7
 1651 05be 00C0      		rjmp .L148
 1653               	.LM239:
 1654 05c0 409A      		sbi 40-32,0
 295:../../../src/radio/cc2420/source/basic_rf.c ****     mdmctrl0=0x02E2;
 1656               	.LM240:
 1657 05c2 82EE      		ldi r24,lo8(738)
 1658 05c4 92E0      		ldi r25,hi8(738)
 1659 05c6 9093 0000 		sts mdmctrl0+1,r25
 1660 05ca 8093 0000 		sts mdmctrl0,r24
 296:../../../src/radio/cc2420/source/basic_rf.c ****     FASTSPI_SETREG(CC2420_MDMCTRL0, mdmctrl0);  // Std Preamble, CRC, no auto ack, no hw addr decod
 1662               	.LM241:
 1663 05ce 4098      		cbi 40-32,0
 1664 05d0 81E1      		ldi r24,lo8(17)
 1665 05d2 8EBD      		out 78-32,r24
 1666               	.L149:
 1668               	.LM242:
 1669 05d4 0DB4      		in __tmp_reg__,77-32
 1670 05d6 07FE      		sbrs __tmp_reg__,7
 1671 05d8 00C0      		rjmp .L149
 1673               	.LM243:
 1674 05da 8091 0000 		lds r24,mdmctrl0+1
 1675 05de 8EBD      		out 78-32,r24
 1676               	.L150:
 1678               	.LM244:
 1679 05e0 0DB4      		in __tmp_reg__,77-32
 1680 05e2 07FE      		sbrs __tmp_reg__,7
 1681 05e4 00C0      		rjmp .L150
 1683               	.LM245:
 1684 05e6 8091 0000 		lds r24,mdmctrl0
 1685 05ea 8EBD      		out 78-32,r24
 1686               	.L151:
 1688               	.LM246:
 1689 05ec 0DB4      		in __tmp_reg__,77-32
 1690 05ee 07FE      		sbrs __tmp_reg__,7
 1691 05f0 00C0      		rjmp .L151
 1693               	.LM247:
 1694 05f2 409A      		sbi 40-32,0
 297:../../../src/radio/cc2420/source/basic_rf.c ****     //FASTSPI_SETREG(CC2420_MDMCTRL0, 0x0AF2);  // Turn on automatic packet acknowledgment
 298:../../../src/radio/cc2420/source/basic_rf.c ****     // Turn on hw addre decoding
 299:../../../src/radio/cc2420/source/basic_rf.c ****     FASTSPI_SETREG(CC2420_MDMCTRL1, 0x0500); // Set the correlation threshold = 20
 1696               	.LM248:
 1697 05f4 4098      		cbi 40-32,0
 1698 05f6 82E1      		ldi r24,lo8(18)
 1699 05f8 8EBD      		out 78-32,r24
 1700               	.L152:
 1702               	.LM249:
 1703 05fa 0DB4      		in __tmp_reg__,77-32
 1704 05fc 07FE      		sbrs __tmp_reg__,7
 1705 05fe 00C0      		rjmp .L152
 1707               	.LM250:
 1708 0600 85E0      		ldi r24,lo8(5)
 1709 0602 8EBD      		out 78-32,r24
 1710               	.L153:
 1712               	.LM251:
 1713 0604 0DB4      		in __tmp_reg__,77-32
 1714 0606 07FE      		sbrs __tmp_reg__,7
 1715 0608 00C0      		rjmp .L153
 1717               	.LM252:
 1718 060a 1EBC      		out 78-32,__zero_reg__
 1719               	.L154:
 1721               	.LM253:
 1722 060c 0DB4      		in __tmp_reg__,77-32
 1723 060e 07FE      		sbrs __tmp_reg__,7
 1724 0610 00C0      		rjmp .L154
 1726               	.LM254:
 1727 0612 409A      		sbi 40-32,0
 300:../../../src/radio/cc2420/source/basic_rf.c ****     FASTSPI_SETREG(CC2420_IOCFG0, 0x007F);   // Set the FIFOP threshold to maximum
 1729               	.LM255:
 1730 0614 4098      		cbi 40-32,0
 1731 0616 8CE1      		ldi r24,lo8(28)
 1732 0618 8EBD      		out 78-32,r24
 1733               	.L155:
 1735               	.LM256:
 1736 061a 0DB4      		in __tmp_reg__,77-32
 1737 061c 07FE      		sbrs __tmp_reg__,7
 1738 061e 00C0      		rjmp .L155
 1740               	.LM257:
 1741 0620 1EBC      		out 78-32,__zero_reg__
 1742               	.L156:
 1744               	.LM258:
 1745 0622 0DB4      		in __tmp_reg__,77-32
 1746 0624 07FE      		sbrs __tmp_reg__,7
 1747 0626 00C0      		rjmp .L156
 1749               	.LM259:
 1750 0628 8FE7      		ldi r24,lo8(127)
 1751 062a 8EBD      		out 78-32,r24
 1752               	.L157:
 1754               	.LM260:
 1755 062c 0DB4      		in __tmp_reg__,77-32
 1756 062e 07FE      		sbrs __tmp_reg__,7
 1757 0630 00C0      		rjmp .L157
 1759               	.LM261:
 1760 0632 409A      		sbi 40-32,0
 301:../../../src/radio/cc2420/source/basic_rf.c ****     FASTSPI_SETREG(CC2420_SECCTRL0, 0x01C4); // Turn off "Security"
 1762               	.LM262:
 1763 0634 4098      		cbi 40-32,0
 1764 0636 89E1      		ldi r24,lo8(25)
 1765 0638 8EBD      		out 78-32,r24
 1766               	.L158:
 1768               	.LM263:
 1769 063a 0DB4      		in __tmp_reg__,77-32
 1770 063c 07FE      		sbrs __tmp_reg__,7
 1771 063e 00C0      		rjmp .L158
 1773               	.LM264:
 1774 0640 81E0      		ldi r24,lo8(1)
 1775 0642 8EBD      		out 78-32,r24
 1776               	.L159:
 1778               	.LM265:
 1779 0644 0DB4      		in __tmp_reg__,77-32
 1780 0646 07FE      		sbrs __tmp_reg__,7
 1781 0648 00C0      		rjmp .L159
 1783               	.LM266:
 1784 064a 84EC      		ldi r24,lo8(-60)
 1785 064c 8EBD      		out 78-32,r24
 1786               	.L160:
 1788               	.LM267:
 1789 064e 0DB4      		in __tmp_reg__,77-32
 1790 0650 07FE      		sbrs __tmp_reg__,7
 1791 0652 00C0      		rjmp .L160
 1793               	.LM268:
 1794 0654 409A      		sbi 40-32,0
 302:../../../src/radio/cc2420/source/basic_rf.c ****     FASTSPI_SETREG(CC2420_RXCTRL1, 0x1A56); // All default except
 1796               	.LM269:
 1797 0656 4098      		cbi 40-32,0
 1798 0658 87E1      		ldi r24,lo8(23)
 1799 065a 8EBD      		out 78-32,r24
 1800               	.L161:
 1802               	.LM270:
 1803 065c 0DB4      		in __tmp_reg__,77-32
 1804 065e 07FE      		sbrs __tmp_reg__,7
 1805 0660 00C0      		rjmp .L161
 1807               	.LM271:
 1808 0662 8AE1      		ldi r24,lo8(26)
 1809 0664 8EBD      		out 78-32,r24
 1810               	.L162:
 1812               	.LM272:
 1813 0666 0DB4      		in __tmp_reg__,77-32
 1814 0668 07FE      		sbrs __tmp_reg__,7
 1815 066a 00C0      		rjmp .L162
 1817               	.LM273:
 1818 066c 86E5      		ldi r24,lo8(86)
 1819 066e 8EBD      		out 78-32,r24
 1820               	.L163:
 1822               	.LM274:
 1823 0670 0DB4      		in __tmp_reg__,77-32
 1824 0672 07FE      		sbrs __tmp_reg__,7
 1825 0674 00C0      		rjmp .L163
 1827               	.LM275:
 1828 0676 409A      		sbi 40-32,0
 303:../../../src/radio/cc2420/source/basic_rf.c ****     // reference bias current to RX
 304:../../../src/radio/cc2420/source/basic_rf.c ****     // bandpass filter is set to 3uA
 305:../../../src/radio/cc2420/source/basic_rf.c **** 
 306:../../../src/radio/cc2420/source/basic_rf.c ****     /*
 307:../../../src/radio/cc2420/source/basic_rf.c ****         // FIXME: remove later for auto ack
 308:../../../src/radio/cc2420/source/basic_rf.c ****         myAddr=MY_MAC;
 309:../../../src/radio/cc2420/source/basic_rf.c ****         panId=0x02;
 310:../../../src/radio/cc2420/source/basic_rf.c ****         FASTSPI_SETREG(CC2420_MDMCTRL0, 0x0AF2);  // Turn on automatic packet acknowledgment
 311:../../../src/radio/cc2420/source/basic_rf.c ****     //    FASTSPI_SETREG(CC2420_MDMCTRL0, 0x0AE2);  // Turn on automatic packet acknowledgment
 312:../../../src/radio/cc2420/source/basic_rf.c ****         nrk_spin_wait_us(500);
 313:../../../src/radio/cc2420/source/basic_rf.c ****         nrk_spin_wait_us(500);
 314:../../../src/radio/cc2420/source/basic_rf.c ****         FASTSPI_WRITE_RAM_LE(&myAddr, CC2420RAM_SHORTADDR, 2, n);
 315:../../../src/radio/cc2420/source/basic_rf.c ****         nrk_spin_wait_us(500);
 316:../../../src/radio/cc2420/source/basic_rf.c ****         FASTSPI_WRITE_RAM_LE(&panId, CC2420RAM_PANID, 2, n);
 317:../../../src/radio/cc2420/source/basic_rf.c ****         nrk_spin_wait_us(500);
 318:../../../src/radio/cc2420/source/basic_rf.c **** 
 319:../../../src/radio/cc2420/source/basic_rf.c ****        printf( "myAddr=%d\r\n",myAddr );
 320:../../../src/radio/cc2420/source/basic_rf.c ****     */
 321:../../../src/radio/cc2420/source/basic_rf.c **** 
 322:../../../src/radio/cc2420/source/basic_rf.c ****     nrk_spin_wait_us(500);
 1830               	.LM276:
 1831 0678 84EF      		ldi r24,lo8(500)
 1832 067a 91E0      		ldi r25,hi8(500)
 1833 067c 0E94 0000 		call nrk_spin_wait_us
 323:../../../src/radio/cc2420/source/basic_rf.c ****     FASTSPI_WRITE_RAM_LE(&panId, CC2420RAM_PANID, 2, n);
 1835               	.LM277:
 1836 0680 4098      		cbi 40-32,0
 1837 0682 88EE      		ldi r24,lo8(-24)
 1838 0684 8EBD      		out 78-32,r24
 1839               	.L164:
 1841               	.LM278:
 1842 0686 0DB4      		in __tmp_reg__,77-32
 1843 0688 07FE      		sbrs __tmp_reg__,7
 1844 068a 00C0      		rjmp .L164
 1846               	.LM279:
 1847 068c 80E8      		ldi r24,lo8(-128)
 1848 068e 8EBD      		out 78-32,r24
 1849               	.L165:
 1851               	.LM280:
 1852 0690 0DB4      		in __tmp_reg__,77-32
 1853 0692 07FE      		sbrs __tmp_reg__,7
 1854 0694 00C0      		rjmp .L165
 1856               	.LM281:
 1857 0696 FE01      		movw r30,r28
 1858 0698 3196      		adiw r30,1
 262:../../../src/radio/cc2420/source/basic_rf.c **** void rf_init(RF_RX_INFO *pRRI, uint8_t channel, uint16_t panId, uint16_t myAddr)
 1860               	.LM282:
 1861 069a CE01      		movw r24,r28
 1862 069c 0396      		adiw r24,3
 1863               	.L167:
 1865               	.LM283:
 1866 069e 2191      		ld r18,Z+
 1867 06a0 2EBD      		out 78-32,r18
 1868               	.L166:
 1870               	.LM284:
 1871 06a2 0DB4      		in __tmp_reg__,77-32
 1872 06a4 07FE      		sbrs __tmp_reg__,7
 1873 06a6 00C0      		rjmp .L166
 1875               	.LM285:
 1876 06a8 E817      		cp r30,r24
 1877 06aa F907      		cpc r31,r25
 1878 06ac 01F4      		brne .L167
 1880               	.LM286:
 1881 06ae 409A      		sbi 40-32,0
 324:../../../src/radio/cc2420/source/basic_rf.c ****     nrk_spin_wait_us(500);
 1883               	.LM287:
 1884 06b0 84EF      		ldi r24,lo8(500)
 1885 06b2 91E0      		ldi r25,hi8(500)
 1886 06b4 0E94 0000 		call nrk_spin_wait_us
 325:../../../src/radio/cc2420/source/basic_rf.c **** 
 326:../../../src/radio/cc2420/source/basic_rf.c ****     ENABLE_GLOBAL_INT();
 1888               	.LM288:
 1889               	/* #APP */
 1890               	 ;  326 "../../../src/radio/cc2420/source/basic_rf.c" 1
 1891 06b8 7894      		sei
 1892               		
 1893               	 ;  0 "" 2
 327:../../../src/radio/cc2420/source/basic_rf.c **** 
 328:../../../src/radio/cc2420/source/basic_rf.c ****     // Set the RF channel
 329:../../../src/radio/cc2420/source/basic_rf.c ****     halRfSetChannel(channel);
 1895               	.LM289:
 1896               	/* #NOAPP */
 1897 06ba 8D2D      		mov r24,r13
 1898 06bc 0E94 0000 		call halRfSetChannel
 330:../../../src/radio/cc2420/source/basic_rf.c **** 
 331:../../../src/radio/cc2420/source/basic_rf.c ****     // Turn interrupts back on
 332:../../../src/radio/cc2420/source/basic_rf.c ****     ENABLE_GLOBAL_INT();
 1900               	.LM290:
 1901               	/* #APP */
 1902               	 ;  332 "../../../src/radio/cc2420/source/basic_rf.c" 1
 1903 06c0 7894      		sei
 1904               		
 1905               	 ;  0 "" 2
 333:../../../src/radio/cc2420/source/basic_rf.c **** 
 334:../../../src/radio/cc2420/source/basic_rf.c ****     // Set the protocol configuration
 335:../../../src/radio/cc2420/source/basic_rf.c ****     rfSettings.pRxInfo = pRRI;
 1907               	.LM291:
 1908               	/* #NOAPP */
 1909 06c2 F092 0000 		sts rfSettings+1,r15
 1910 06c6 E092 0000 		sts rfSettings,r14
 336:../../../src/radio/cc2420/source/basic_rf.c ****     rfSettings.panId = panId;
 1912               	.LM292:
 1913 06ca 8981      		ldd r24,Y+1
 1914 06cc 9A81      		ldd r25,Y+2
 1915 06ce 9093 0000 		sts rfSettings+4+1,r25
 1916 06d2 8093 0000 		sts rfSettings+4,r24
 337:../../../src/radio/cc2420/source/basic_rf.c ****     rfSettings.myAddr = myAddr;
 1918               	.LM293:
 1919 06d6 1093 0000 		sts rfSettings+6+1,r17
 1920 06da 0093 0000 		sts rfSettings+6,r16
 338:../../../src/radio/cc2420/source/basic_rf.c ****     rfSettings.txSeqNumber = 0;
 1922               	.LM294:
 1923 06de 1092 0000 		sts rfSettings+2,__zero_reg__
 339:../../../src/radio/cc2420/source/basic_rf.c ****     rfSettings.receiveOn = FALSE;
 1925               	.LM295:
 1926 06e2 1092 0000 		sts rfSettings+8,__zero_reg__
 340:../../../src/radio/cc2420/source/basic_rf.c **** 
 341:../../../src/radio/cc2420/source/basic_rf.c ****     // Wait for the crystal oscillator to become stable
 342:../../../src/radio/cc2420/source/basic_rf.c ****     halRfWaitForCrystalOscillator();
 1928               	.LM296:
 1929 06e6 0E94 0000 		call halRfWaitForCrystalOscillator
 343:../../../src/radio/cc2420/source/basic_rf.c **** 
 344:../../../src/radio/cc2420/source/basic_rf.c ****     // Write the short address and the PAN ID to the CC2420 RAM (requires that the XOSC is on and s
 345:../../../src/radio/cc2420/source/basic_rf.c ****     //	DISABLE_GLOBAL_INT();
 346:../../../src/radio/cc2420/source/basic_rf.c **** //    FASTSPI_WRITE_RAM_LE(&myAddr, CC2420RAM_SHORTADDR, 2, n);
 347:../../../src/radio/cc2420/source/basic_rf.c **** //    FASTSPI_WRITE_RAM_LE(&panId, CC2420RAM_PANID, 2, n);
 348:../../../src/radio/cc2420/source/basic_rf.c ****     //	ENABLE_GLOBAL_INT();
 349:../../../src/radio/cc2420/source/basic_rf.c **** 
 350:../../../src/radio/cc2420/source/basic_rf.c **** #ifdef RADIO_PRIORITY_CEILING
 351:../../../src/radio/cc2420/source/basic_rf.c ****     v = nrk_sem_post (radio_sem);
 1931               	.LM297:
 1932 06ea 8091 0000 		lds r24,radio_sem
 1933 06ee 9091 0000 		lds r25,radio_sem+1
 1934 06f2 0E94 0000 		call nrk_sem_post
 352:../../../src/radio/cc2420/source/basic_rf.c ****     if (v == NRK_ERROR)
 1936               	.LM298:
 1937 06f6 8F3F      		cpi r24,lo8(-1)
 1938 06f8 01F4      		brne .L168
 353:../../../src/radio/cc2420/source/basic_rf.c ****     {
 354:../../../src/radio/cc2420/source/basic_rf.c ****         nrk_kprintf (PSTR ("CC2420 ERROR:  Release of semaphore failed\r\n"));
 1940               	.LM299:
 1941 06fa 80E0      		ldi r24,lo8(__c.2433)
 1942 06fc 90E0      		ldi r25,hi8(__c.2433)
 1943 06fe 0E94 0000 		call nrk_kprintf
 355:../../../src/radio/cc2420/source/basic_rf.c ****         _nrk_errno_set (2);
 1945               	.LM300:
 1946 0702 82E0      		ldi r24,lo8(2)
 1947 0704 0E94 0000 		call _nrk_errno_set
 1948               	.L168:
 356:../../../src/radio/cc2420/source/basic_rf.c ****     }
 357:../../../src/radio/cc2420/source/basic_rf.c **** #endif
 358:../../../src/radio/cc2420/source/basic_rf.c **** 
 359:../../../src/radio/cc2420/source/basic_rf.c ****     auto_ack_enable=0;
 1950               	.LM301:
 1951 0708 1092 0000 		sts auto_ack_enable,__zero_reg__
 360:../../../src/radio/cc2420/source/basic_rf.c ****     security_enable=0;
 1953               	.LM302:
 1954 070c 1092 0000 		sts security_enable,__zero_reg__
 361:../../../src/radio/cc2420/source/basic_rf.c ****     last_pkt_encrypted=0;
 1956               	.LM303:
 1957 0710 1092 0000 		sts last_pkt_encrypted,__zero_reg__
 1958               	/* epilogue start */
 362:../../../src/radio/cc2420/source/basic_rf.c **** } // rf_init()
 1960               	.LM304:
 1961 0714 0F90      		pop __tmp_reg__
 1962 0716 0F90      		pop __tmp_reg__
 1963 0718 CF91      		pop r28
 1964 071a DF91      		pop r29
 1965 071c 1F91      		pop r17
 1966 071e 0F91      		pop r16
 1967 0720 FF90      		pop r15
 1968 0722 EF90      		pop r14
 1969 0724 DF90      		pop r13
 1970 0726 0895      		ret
 1972               	.Lscope19:
 1974               		.stabd	78,0,0
 1976               	.global	rf_rx_on
 1978               	rf_rx_on:
 1979               		.stabd	46,0,0
 363:../../../src/radio/cc2420/source/basic_rf.c **** 
 364:../../../src/radio/cc2420/source/basic_rf.c **** 
 365:../../../src/radio/cc2420/source/basic_rf.c **** //-------------------------------------------------------------------------------------------------
 366:../../../src/radio/cc2420/source/basic_rf.c **** //  void rf_rx_on(void)
 367:../../../src/radio/cc2420/source/basic_rf.c **** //
 368:../../../src/radio/cc2420/source/basic_rf.c **** //  DESCRIPTION:
 369:../../../src/radio/cc2420/source/basic_rf.c **** //      Enables the CC2420 receiver and the FIFOP interrupt. When a packet is received through this
 370:../../../src/radio/cc2420/source/basic_rf.c **** //      interrupt, it will call rf_rx_callback(...), which must be defined by the application
 371:../../../src/radio/cc2420/source/basic_rf.c **** //-------------------------------------------------------------------------------------------------
 372:../../../src/radio/cc2420/source/basic_rf.c **** void rf_rx_on(void)
 373:../../../src/radio/cc2420/source/basic_rf.c **** {
 1981               	.LM305:
 1982               	.LFBB20:
 1983               	/* prologue: function */
 1984               	/* frame size = 0 */
 1985               	/* stack size = 0 */
 1986               	.L__stack_usage = 0
 374:../../../src/radio/cc2420/source/basic_rf.c **** #ifdef RADIO_PRIORITY_CEILING
 375:../../../src/radio/cc2420/source/basic_rf.c ****     nrk_sem_pend (radio_sem);
 1988               	.LM306:
 1989 0728 8091 0000 		lds r24,radio_sem
 1990 072c 9091 0000 		lds r25,radio_sem+1
 1991 0730 0E94 0000 		call nrk_sem_pend
 376:../../../src/radio/cc2420/source/basic_rf.c **** #endif
 377:../../../src/radio/cc2420/source/basic_rf.c ****     rfSettings.receiveOn = TRUE;
 1993               	.LM307:
 1994 0734 81E0      		ldi r24,lo8(1)
 1995 0736 8093 0000 		sts rfSettings+8,r24
 378:../../../src/radio/cc2420/source/basic_rf.c **** 
 379:../../../src/radio/cc2420/source/basic_rf.c **** #ifdef CC2420_OSC_OPT
 380:../../../src/radio/cc2420/source/basic_rf.c ****     FASTSPI_STROBE(CC2420_SXOSCON);
 381:../../../src/radio/cc2420/source/basic_rf.c ****     nrk_spin_wait_us(OSC_STARTUP_DELAY);
 382:../../../src/radio/cc2420/source/basic_rf.c **** #endif
 383:../../../src/radio/cc2420/source/basic_rf.c ****     FASTSPI_STROBE(CC2420_SRXON);
 1997               	.LM308:
 1998 073a 4098      		cbi 40-32,0
 1999 073c 83E0      		ldi r24,lo8(3)
 2000 073e 8EBD      		out 78-32,r24
 2001               	.L190:
 2003               	.LM309:
 2004 0740 0DB4      		in __tmp_reg__,77-32
 2005 0742 07FE      		sbrs __tmp_reg__,7
 2006 0744 00C0      		rjmp .L190
 2008               	.LM310:
 2009 0746 409A      		sbi 40-32,0
 384:../../../src/radio/cc2420/source/basic_rf.c ****     FASTSPI_STROBE(CC2420_SFLUSHRX);
 2011               	.LM311:
 2012 0748 4098      		cbi 40-32,0
 2013 074a 88E0      		ldi r24,lo8(8)
 2014 074c 8EBD      		out 78-32,r24
 2015               	.L191:
 2017               	.LM312:
 2018 074e 0DB4      		in __tmp_reg__,77-32
 2019 0750 07FE      		sbrs __tmp_reg__,7
 2020 0752 00C0      		rjmp .L191
 2022               	.LM313:
 2023 0754 409A      		sbi 40-32,0
 385:../../../src/radio/cc2420/source/basic_rf.c ****     rx_ready=0;
 2025               	.LM314:
 2026 0756 1092 0000 		sts rx_ready,__zero_reg__
 386:../../../src/radio/cc2420/source/basic_rf.c **** #ifdef RADIO_PRIORITY_CEILING
 387:../../../src/radio/cc2420/source/basic_rf.c ****     nrk_sem_post(radio_sem);
 2028               	.LM315:
 2029 075a 8091 0000 		lds r24,radio_sem
 2030 075e 9091 0000 		lds r25,radio_sem+1
 2031 0762 0E94 0000 		call nrk_sem_post
 2032               	/* epilogue start */
 388:../../../src/radio/cc2420/source/basic_rf.c **** #endif
 389:../../../src/radio/cc2420/source/basic_rf.c ****     //	ENABLE_FIFOP_INT();
 390:../../../src/radio/cc2420/source/basic_rf.c **** } // rf_rx_on()
 2034               	.LM316:
 2035 0766 0895      		ret
 2037               	.Lscope20:
 2039               		.stabd	78,0,0
 2041               	.global	rf_polling_rx_on
 2043               	rf_polling_rx_on:
 2044               		.stabd	46,0,0
 391:../../../src/radio/cc2420/source/basic_rf.c **** 
 392:../../../src/radio/cc2420/source/basic_rf.c **** void rf_polling_rx_on(void)
 393:../../../src/radio/cc2420/source/basic_rf.c **** {
 2046               	.LM317:
 2047               	.LFBB21:
 2048               	/* prologue: function */
 2049               	/* frame size = 0 */
 2050               	/* stack size = 0 */
 2051               	.L__stack_usage = 0
 394:../../../src/radio/cc2420/source/basic_rf.c **** #ifdef RADIO_PRIORITY_CEILING
 395:../../../src/radio/cc2420/source/basic_rf.c ****     nrk_sem_pend (radio_sem);
 2053               	.LM318:
 2054 0768 8091 0000 		lds r24,radio_sem
 2055 076c 9091 0000 		lds r25,radio_sem+1
 2056 0770 0E94 0000 		call nrk_sem_pend
 396:../../../src/radio/cc2420/source/basic_rf.c **** #endif
 397:../../../src/radio/cc2420/source/basic_rf.c ****     rfSettings.receiveOn = TRUE;
 2058               	.LM319:
 2059 0774 81E0      		ldi r24,lo8(1)
 2060 0776 8093 0000 		sts rfSettings+8,r24
 398:../../../src/radio/cc2420/source/basic_rf.c **** #ifdef CC2420_OSC_OPT
 399:../../../src/radio/cc2420/source/basic_rf.c ****     FASTSPI_STROBE(CC2420_SXOSCON);
 400:../../../src/radio/cc2420/source/basic_rf.c ****     nrk_spin_wait_us(OSC_STARTUP_DELAY);
 401:../../../src/radio/cc2420/source/basic_rf.c **** #endif
 402:../../../src/radio/cc2420/source/basic_rf.c ****     FASTSPI_STROBE(CC2420_SRXON);
 2062               	.LM320:
 2063 077a 4098      		cbi 40-32,0
 2064 077c 83E0      		ldi r24,lo8(3)
 2065 077e 8EBD      		out 78-32,r24
 2066               	.L195:
 2068               	.LM321:
 2069 0780 0DB4      		in __tmp_reg__,77-32
 2070 0782 07FE      		sbrs __tmp_reg__,7
 2071 0784 00C0      		rjmp .L195
 2073               	.LM322:
 2074 0786 409A      		sbi 40-32,0
 403:../../../src/radio/cc2420/source/basic_rf.c ****     FASTSPI_STROBE(CC2420_SFLUSHRX);
 2076               	.LM323:
 2077 0788 4098      		cbi 40-32,0
 2078 078a 88E0      		ldi r24,lo8(8)
 2079 078c 8EBD      		out 78-32,r24
 2080               	.L196:
 2082               	.LM324:
 2083 078e 0DB4      		in __tmp_reg__,77-32
 2084 0790 07FE      		sbrs __tmp_reg__,7
 2085 0792 00C0      		rjmp .L196
 2087               	.LM325:
 2088 0794 409A      		sbi 40-32,0
 404:../../../src/radio/cc2420/source/basic_rf.c ****     rx_ready=0;
 2090               	.LM326:
 2091 0796 1092 0000 		sts rx_ready,__zero_reg__
 405:../../../src/radio/cc2420/source/basic_rf.c **** #ifdef RADIO_PRIORITY_CEILING
 406:../../../src/radio/cc2420/source/basic_rf.c ****     nrk_sem_post(radio_sem);
 2093               	.LM327:
 2094 079a 8091 0000 		lds r24,radio_sem
 2095 079e 9091 0000 		lds r25,radio_sem+1
 2096 07a2 0E94 0000 		call nrk_sem_post
 2097               	/* epilogue start */
 407:../../../src/radio/cc2420/source/basic_rf.c **** #endif
 408:../../../src/radio/cc2420/source/basic_rf.c **** } // rf_rx_on()
 2099               	.LM328:
 2100 07a6 0895      		ret
 2102               	.Lscope21:
 2104               		.stabd	78,0,0
 2106               	.global	rf_rx_off
 2108               	rf_rx_off:
 2109               		.stabd	46,0,0
 409:../../../src/radio/cc2420/source/basic_rf.c **** 
 410:../../../src/radio/cc2420/source/basic_rf.c **** 
 411:../../../src/radio/cc2420/source/basic_rf.c **** /**********************************************************
 412:../../../src/radio/cc2420/source/basic_rf.c **** // Here is a sample of the rf_rx_callback() that should
 413:../../../src/radio/cc2420/source/basic_rf.c **** // be placed in your application
 414:../../../src/radio/cc2420/source/basic_rf.c **** 
 415:../../../src/radio/cc2420/source/basic_rf.c **** RF_RX_INFO* rf_rx_callback(RF_RX_INFO *pRRI) {
 416:../../../src/radio/cc2420/source/basic_rf.c **** 	// Its okay to leave this empty...
 417:../../../src/radio/cc2420/source/basic_rf.c **** 	return pRRI;
 418:../../../src/radio/cc2420/source/basic_rf.c **** }
 419:../../../src/radio/cc2420/source/basic_rf.c **** ***********************************************************/
 420:../../../src/radio/cc2420/source/basic_rf.c **** 
 421:../../../src/radio/cc2420/source/basic_rf.c **** 
 422:../../../src/radio/cc2420/source/basic_rf.c **** 
 423:../../../src/radio/cc2420/source/basic_rf.c **** 
 424:../../../src/radio/cc2420/source/basic_rf.c **** //-------------------------------------------------------------------------------------------------
 425:../../../src/radio/cc2420/source/basic_rf.c **** //  void rf_rx_off(void)
 426:../../../src/radio/cc2420/source/basic_rf.c **** //
 427:../../../src/radio/cc2420/source/basic_rf.c **** //  DESCRIPTION:
 428:../../../src/radio/cc2420/source/basic_rf.c **** //      Disables the CC2420 receiver and the FIFOP interrupt.
 429:../../../src/radio/cc2420/source/basic_rf.c **** //-------------------------------------------------------------------------------------------------
 430:../../../src/radio/cc2420/source/basic_rf.c **** void rf_rx_off(void)
 431:../../../src/radio/cc2420/source/basic_rf.c **** {
 2111               	.LM329:
 2112               	.LFBB22:
 2113               	/* prologue: function */
 2114               	/* frame size = 0 */
 2115               	/* stack size = 0 */
 2116               	.L__stack_usage = 0
 432:../../../src/radio/cc2420/source/basic_rf.c **** #ifdef RADIO_PRIORITY_CEILING
 433:../../../src/radio/cc2420/source/basic_rf.c ****     nrk_sem_pend (radio_sem);
 2118               	.LM330:
 2119 07a8 8091 0000 		lds r24,radio_sem
 2120 07ac 9091 0000 		lds r25,radio_sem+1
 2121 07b0 0E94 0000 		call nrk_sem_pend
 434:../../../src/radio/cc2420/source/basic_rf.c **** #endif
 435:../../../src/radio/cc2420/source/basic_rf.c ****     // XXX
 436:../../../src/radio/cc2420/source/basic_rf.c ****     //SET_VREG_INACTIVE();
 437:../../../src/radio/cc2420/source/basic_rf.c ****     rfSettings.receiveOn = FALSE;
 2123               	.LM331:
 2124 07b4 1092 0000 		sts rfSettings+8,__zero_reg__
 438:../../../src/radio/cc2420/source/basic_rf.c ****     FASTSPI_STROBE(CC2420_SRFOFF);
 2126               	.LM332:
 2127 07b8 4098      		cbi 40-32,0
 2128 07ba 86E0      		ldi r24,lo8(6)
 2129 07bc 8EBD      		out 78-32,r24
 2130               	.L200:
 2132               	.LM333:
 2133 07be 0DB4      		in __tmp_reg__,77-32
 2134 07c0 07FE      		sbrs __tmp_reg__,7
 2135 07c2 00C0      		rjmp .L200
 2137               	.LM334:
 2138 07c4 409A      		sbi 40-32,0
 439:../../../src/radio/cc2420/source/basic_rf.c **** #ifdef CC2420_OSC_OPT
 440:../../../src/radio/cc2420/source/basic_rf.c ****     FASTSPI_STROBE(CC2420_SXOSCOFF);
 441:../../../src/radio/cc2420/source/basic_rf.c **** #endif
 442:../../../src/radio/cc2420/source/basic_rf.c ****     rx_ready=0;
 2140               	.LM335:
 2141 07c6 1092 0000 		sts rx_ready,__zero_reg__
 443:../../../src/radio/cc2420/source/basic_rf.c **** #ifdef RADIO_PRIORITY_CEILING
 444:../../../src/radio/cc2420/source/basic_rf.c ****     nrk_sem_post(radio_sem);
 2143               	.LM336:
 2144 07ca 8091 0000 		lds r24,radio_sem
 2145 07ce 9091 0000 		lds r25,radio_sem+1
 2146 07d2 0E94 0000 		call nrk_sem_post
 2147               	/* epilogue start */
 445:../../../src/radio/cc2420/source/basic_rf.c **** #endif
 446:../../../src/radio/cc2420/source/basic_rf.c ****     //	DISABLE_FIFOP_INT();
 447:../../../src/radio/cc2420/source/basic_rf.c **** } // rf_rx_off()
 2149               	.LM337:
 2150 07d6 0895      		ret
 2152               	.Lscope22:
 2154               		.stabd	78,0,0
 2159               	.global	rf_tx_tdma_packet
 2161               	rf_tx_tdma_packet:
 2162               		.stabd	46,0,0
 448:../../../src/radio/cc2420/source/basic_rf.c **** 
 449:../../../src/radio/cc2420/source/basic_rf.c **** 
 450:../../../src/radio/cc2420/source/basic_rf.c **** /**************************************************************************
 451:../../../src/radio/cc2420/source/basic_rf.c **** This function is the same as normal TX, only it waits until the last
 452:../../../src/radio/cc2420/source/basic_rf.c **** second to send the duty out with the high speed timer.  And by duty, I mean
 453:../../../src/radio/cc2420/source/basic_rf.c **** the packet BIATCH...
 454:../../../src/radio/cc2420/source/basic_rf.c **** **************************************************************************/
 455:../../../src/radio/cc2420/source/basic_rf.c **** uint8_t rf_tx_tdma_packet(RF_TX_INFO *pRTI, uint16_t slot_start_time, uint16_t tx_guard_time)
 456:../../../src/radio/cc2420/source/basic_rf.c **** {
 2164               	.LM338:
 2165               	.LFBB23:
 2166 07d8 BF92      		push r11
 2167 07da CF92      		push r12
 2168 07dc DF92      		push r13
 2169 07de EF92      		push r14
 2170 07e0 FF92      		push r15
 2171 07e2 0F93      		push r16
 2172 07e4 1F93      		push r17
 2173 07e6 DF93      		push r29
 2174 07e8 CF93      		push r28
 2175 07ea 00D0      		rcall .
 2176 07ec 0F92      		push __tmp_reg__
 2177 07ee CDB7      		in r28,__SP_L__
 2178 07f0 DEB7      		in r29,__SP_H__
 2179               	/* prologue: function */
 2180               	/* frame size = 3 */
 2181               	/* stack size = 12 */
 2182               	.L__stack_usage = 12
 2183 07f2 8C01      		movw r16,r24
 2184 07f4 6B01      		movw r12,r22
 2185 07f6 7A01      		movw r14,r20
 457:../../../src/radio/cc2420/source/basic_rf.c ****     uint16_t frameControlField;
 458:../../../src/radio/cc2420/source/basic_rf.c ****     uint8_t packetLength;
 459:../../../src/radio/cc2420/source/basic_rf.c ****     uint8_t success;
 460:../../../src/radio/cc2420/source/basic_rf.c ****     uint8_t spiStatusByte;
 461:../../../src/radio/cc2420/source/basic_rf.c ****     uint8_t checksum,i;
 462:../../../src/radio/cc2420/source/basic_rf.c ****     uint8_t timestamp;
 463:../../../src/radio/cc2420/source/basic_rf.c **** 
 464:../../../src/radio/cc2420/source/basic_rf.c **** #ifdef RADIO_PRIORITY_CEILING
 465:../../../src/radio/cc2420/source/basic_rf.c ****     nrk_sem_pend (radio_sem);
 2187               	.LM339:
 2188 07f8 8091 0000 		lds r24,radio_sem
 2189 07fc 9091 0000 		lds r25,radio_sem+1
 2190 0800 0E94 0000 		call nrk_sem_pend
 466:../../../src/radio/cc2420/source/basic_rf.c **** #endif
 467:../../../src/radio/cc2420/source/basic_rf.c ****     timestamp=_nrk_os_timer_get();
 2192               	.LM340:
 2193 0804 0E94 0000 		call _nrk_os_timer_get
 468:../../../src/radio/cc2420/source/basic_rf.c ****     // XXX 2 below are hacks...
 469:../../../src/radio/cc2420/source/basic_rf.c **** #ifdef CC2420_OSC_OPT
 470:../../../src/radio/cc2420/source/basic_rf.c ****     FASTSPI_STROBE(CC2420_SXOSCON);
 471:../../../src/radio/cc2420/source/basic_rf.c ****     nrk_spin_wait_us(OSC_STARTUP_DELAY);
 472:../../../src/radio/cc2420/source/basic_rf.c **** #endif
 473:../../../src/radio/cc2420/source/basic_rf.c ****     FASTSPI_STROBE(CC2420_SFLUSHRX);
 2195               	.LM341:
 2196 0808 4098      		cbi 40-32,0
 2197 080a 88E0      		ldi r24,lo8(8)
 2198 080c 8EBD      		out 78-32,r24
 2199               	.L203:
 2201               	.LM342:
 2202 080e 0DB4      		in __tmp_reg__,77-32
 2203 0810 07FE      		sbrs __tmp_reg__,7
 2204 0812 00C0      		rjmp .L203
 2206               	.LM343:
 2207 0814 409A      		sbi 40-32,0
 474:../../../src/radio/cc2420/source/basic_rf.c ****     FASTSPI_STROBE(CC2420_SFLUSHRX);
 2209               	.LM344:
 2210 0816 4098      		cbi 40-32,0
 2211 0818 88E0      		ldi r24,lo8(8)
 2212 081a 8EBD      		out 78-32,r24
 2213               	.L204:
 2215               	.LM345:
 2216 081c 0DB4      		in __tmp_reg__,77-32
 2217 081e 07FE      		sbrs __tmp_reg__,7
 2218 0820 00C0      		rjmp .L204
 2220               	.LM346:
 2221 0822 409A      		sbi 40-32,0
 2222               	.L294:
 475:../../../src/radio/cc2420/source/basic_rf.c ****     // Wait until the transceiver is idle
 476:../../../src/radio/cc2420/source/basic_rf.c ****     while (FIFOP_IS_1 || SFD_IS_1);
 2224               	.LM347:
 2225 0824 6799      		sbic 44-32,7
 2226 0826 00C0      		rjmp .L294
 2228               	.LM348:
 2229 0828 4E99      		sbic 41-32,6
 2230 082a 00C0      		rjmp .L294
 477:../../../src/radio/cc2420/source/basic_rf.c ****     // Turn off global interrupts to avoid interference on the SPI interface
 478:../../../src/radio/cc2420/source/basic_rf.c ****     DISABLE_GLOBAL_INT();
 2232               	.LM349:
 2233               	/* #APP */
 2234               	 ;  478 "../../../src/radio/cc2420/source/basic_rf.c" 1
 2235 082c F894      		cli
 2236               		
 2237               	 ;  0 "" 2
 479:../../../src/radio/cc2420/source/basic_rf.c ****     // Flush the TX FIFO just in case...
 480:../../../src/radio/cc2420/source/basic_rf.c ****     FASTSPI_STROBE(CC2420_SFLUSHTX);
 2239               	.LM350:
 2240               	/* #NOAPP */
 2241 082e 4098      		cbi 40-32,0
 2242 0830 89E0      		ldi r24,lo8(9)
 2243 0832 8EBD      		out 78-32,r24
 2244               	.L206:
 2246               	.LM351:
 2247 0834 0DB4      		in __tmp_reg__,77-32
 2248 0836 07FE      		sbrs __tmp_reg__,7
 2249 0838 00C0      		rjmp .L206
 2251               	.LM352:
 2252 083a 409A      		sbi 40-32,0
 481:../../../src/radio/cc2420/source/basic_rf.c ****     FASTSPI_STROBE(CC2420_SFLUSHTX);
 2254               	.LM353:
 2255 083c 4098      		cbi 40-32,0
 2256 083e 89E0      		ldi r24,lo8(9)
 2257 0840 8EBD      		out 78-32,r24
 2258               	.L207:
 2260               	.LM354:
 2261 0842 0DB4      		in __tmp_reg__,77-32
 2262 0844 07FE      		sbrs __tmp_reg__,7
 2263 0846 00C0      		rjmp .L207
 2265               	.LM355:
 2266 0848 409A      		sbi 40-32,0
 482:../../../src/radio/cc2420/source/basic_rf.c **** 
 483:../../../src/radio/cc2420/source/basic_rf.c ****     checksum=0;
 484:../../../src/radio/cc2420/source/basic_rf.c ****     for(i=0; i<pRTI->length; i++ )
 2268               	.LM356:
 2269 084a D801      		movw r26,r16
 2270 084c 1296      		adiw r26,2
 2271 084e 5C91      		ld r21,X
 2272 0850 1297      		sbiw r26,2
 2273 0852 252F      		mov r18,r21
 2274 0854 3327      		clr r19
 2275 0856 27FD      		sbrc r18,7
 2276 0858 3095      		com r19
 483:../../../src/radio/cc2420/source/basic_rf.c ****     checksum=0;
 2278               	.LM357:
 2279 085a BB24      		clr r11
 2281               	.LM358:
 2282 085c 40E0      		ldi r20,lo8(0)
 2283 085e 00C0      		rjmp .L208
 2284               	.L209:
 485:../../../src/radio/cc2420/source/basic_rf.c ****     {
 486:../../../src/radio/cc2420/source/basic_rf.c ****         // lets do our own payload checksum because we don't trust the CRC
 487:../../../src/radio/cc2420/source/basic_rf.c ****         checksum+=pRTI->pPayload[i];
 2286               	.LM359:
 2287 0860 D801      		movw r26,r16
 2288 0862 1396      		adiw r26,3
 2289 0864 ED91      		ld r30,X+
 2290 0866 FC91      		ld r31,X
 2291 0868 1497      		sbiw r26,3+1
 2292 086a E80F      		add r30,r24
 2293 086c F91F      		adc r31,r25
 2294 086e 8081      		ld r24,Z
 2295 0870 B80E      		add r11,r24
 484:../../../src/radio/cc2420/source/basic_rf.c ****     for(i=0; i<pRTI->length; i++ )
 2297               	.LM360:
 2298 0872 4F5F      		subi r20,lo8(-(1))
 2299               	.L208:
 484:../../../src/radio/cc2420/source/basic_rf.c ****     for(i=0; i<pRTI->length; i++ )
 2301               	.LM361:
 2302 0874 842F      		mov r24,r20
 2303 0876 90E0      		ldi r25,lo8(0)
 2304 0878 8217      		cp r24,r18
 2305 087a 9307      		cpc r25,r19
 2306 087c 04F0      		brlt .L209
 488:../../../src/radio/cc2420/source/basic_rf.c ****     }
 489:../../../src/radio/cc2420/source/basic_rf.c ****     packetLength = pRTI->length + RF_PACKET_OVERHEAD_SIZE + CHECKSUM_OVERHEAD;
 2308               	.LM362:
 2309 087e 545F      		subi r21,lo8(-(12))
 490:../../../src/radio/cc2420/source/basic_rf.c ****     //nrk_set_led(3);
 491:../../../src/radio/cc2420/source/basic_rf.c ****     //do { } while(_nrk_get_high_speed_timer()<(tx_guard_time));
 492:../../../src/radio/cc2420/source/basic_rf.c **** 
 493:../../../src/radio/cc2420/source/basic_rf.c ****     // Write the packet to the TX FIFO (the FCS is appended automatically when AUTOCRC is enabled)
 494:../../../src/radio/cc2420/source/basic_rf.c ****     // These are only the MAC AGNOSTIC parameters...
 495:../../../src/radio/cc2420/source/basic_rf.c ****     // Slots for example are at a higher layer since they assume TDMA
 496:../../../src/radio/cc2420/source/basic_rf.c **** 
 497:../../../src/radio/cc2420/source/basic_rf.c ****     FASTSPI_WRITE_FIFO((uint8_t*)&packetLength, 1);               // Packet length
 2311               	.LM363:
 2312 0880 4098      		cbi 40-32,0
 2313 0882 8EE3      		ldi r24,lo8(62)
 2314 0884 8EBD      		out 78-32,r24
 2315               	.L210:
 2317               	.LM364:
 2318 0886 0DB4      		in __tmp_reg__,77-32
 2319 0888 07FE      		sbrs __tmp_reg__,7
 2320 088a 00C0      		rjmp .L210
 2321               	.LBB2:
 2323               	.LM365:
 2324 088c 5EBD      		out 78-32,r21
 2325               	.L211:
 2327               	.LM366:
 2328 088e 0DB4      		in __tmp_reg__,77-32
 2329 0890 07FE      		sbrs __tmp_reg__,7
 2330 0892 00C0      		rjmp .L211
 2331               	.LBE2:
 2333               	.LM367:
 2334 0894 409A      		sbi 40-32,0
 498:../../../src/radio/cc2420/source/basic_rf.c ****     frameControlField = pRTI->ackRequest ? RF_FCF_ACK : RF_FCF_NOACK;
 2336               	.LM368:
 2337 0896 F801      		movw r30,r16
 2338 0898 8681      		ldd r24,Z+6
 2339 089a 8823      		tst r24
 2340 089c 01F0      		breq .L252
 2342               	.LM369:
 2343 089e 81E6      		ldi r24,lo8(-30623)
 2344 08a0 98E8      		ldi r25,hi8(-30623)
 2345 08a2 00C0      		rjmp .L212
 2346               	.L252:
 2347 08a4 81E4      		ldi r24,lo8(-30655)
 2348 08a6 98E8      		ldi r25,hi8(-30655)
 2349               	.L212:
 2351               	.LM370:
 2352 08a8 9A83      		std Y+2,r25
 2353 08aa 8983      		std Y+1,r24
 499:../../../src/radio/cc2420/source/basic_rf.c ****     FASTSPI_WRITE_FIFO((uint8_t*) &frameControlField, 2);         // Frame control field
 2355               	.LM371:
 2356 08ac 4098      		cbi 40-32,0
 2357 08ae 8EE3      		ldi r24,lo8(62)
 2358 08b0 8EBD      		out 78-32,r24
 2359               	.L213:
 2361               	.LM372:
 2362 08b2 0DB4      		in __tmp_reg__,77-32
 2363 08b4 07FE      		sbrs __tmp_reg__,7
 2364 08b6 00C0      		rjmp .L213
 2366               	.LM373:
 2367 08b8 FE01      		movw r30,r28
 2368 08ba 3196      		adiw r30,1
 455:../../../src/radio/cc2420/source/basic_rf.c **** uint8_t rf_tx_tdma_packet(RF_TX_INFO *pRTI, uint16_t slot_start_time, uint16_t tx_guard_time)
 2370               	.LM374:
 2371 08bc CE01      		movw r24,r28
 2372 08be 0396      		adiw r24,3
 2373               	.L215:
 2374               	.LBB3:
 2376               	.LM375:
 2377 08c0 2191      		ld r18,Z+
 2378 08c2 2EBD      		out 78-32,r18
 2379               	.L214:
 2381               	.LM376:
 2382 08c4 0DB4      		in __tmp_reg__,77-32
 2383 08c6 07FE      		sbrs __tmp_reg__,7
 2384 08c8 00C0      		rjmp .L214
 2386               	.LM377:
 2387 08ca E817      		cp r30,r24
 2388 08cc F907      		cpc r31,r25
 2389 08ce 01F4      		brne .L215
 2390               	.LBE3:
 2392               	.LM378:
 2393 08d0 409A      		sbi 40-32,0
 500:../../../src/radio/cc2420/source/basic_rf.c ****     FASTSPI_WRITE_FIFO((uint8_t*) &rfSettings.txSeqNumber, 1);    // Sequence number
 2395               	.LM379:
 2396 08d2 4098      		cbi 40-32,0
 2397 08d4 8EE3      		ldi r24,lo8(62)
 2398 08d6 8EBD      		out 78-32,r24
 2399               	.L216:
 2401               	.LM380:
 2402 08d8 0DB4      		in __tmp_reg__,77-32
 2403 08da 07FE      		sbrs __tmp_reg__,7
 2404 08dc 00C0      		rjmp .L216
 2405               	.LBB4:
 2407               	.LM381:
 2408 08de 8091 0000 		lds r24,rfSettings+2
 2409 08e2 8EBD      		out 78-32,r24
 2410               	.L217:
 2412               	.LM382:
 2413 08e4 0DB4      		in __tmp_reg__,77-32
 2414 08e6 07FE      		sbrs __tmp_reg__,7
 2415 08e8 00C0      		rjmp .L217
 2416               	.LBE4:
 2418               	.LM383:
 2419 08ea 409A      		sbi 40-32,0
 501:../../../src/radio/cc2420/source/basic_rf.c ****     FASTSPI_WRITE_FIFO((uint8_t*) &rfSettings.panId, 2);          // Dest. PAN ID
 2421               	.LM384:
 2422 08ec 4098      		cbi 40-32,0
 2423 08ee 8EE3      		ldi r24,lo8(62)
 2424 08f0 8EBD      		out 78-32,r24
 2425               	.L218:
 2427               	.LM385:
 2428 08f2 0DB4      		in __tmp_reg__,77-32
 2429 08f4 07FE      		sbrs __tmp_reg__,7
 2430 08f6 00C0      		rjmp .L218
 2432               	.LM386:
 2433 08f8 80E0      		ldi r24,lo8(0)
 2434 08fa 90E0      		ldi r25,hi8(0)
 2435               	.L220:
 2436               	.LBB5:
 455:../../../src/radio/cc2420/source/basic_rf.c **** uint8_t rf_tx_tdma_packet(RF_TX_INFO *pRTI, uint16_t slot_start_time, uint16_t tx_guard_time)
 2438               	.LM387:
 2439 08fc FC01      		movw r30,r24
 2440 08fe E050      		subi r30,lo8(-(rfSettings))
 2441 0900 F040      		sbci r31,hi8(-(rfSettings))
 2443               	.LM388:
 2444 0902 2481      		ldd r18,Z+4
 2445 0904 2EBD      		out 78-32,r18
 2446               	.L219:
 2448               	.LM389:
 2449 0906 0DB4      		in __tmp_reg__,77-32
 2450 0908 07FE      		sbrs __tmp_reg__,7
 2451 090a 00C0      		rjmp .L219
 2453               	.LM390:
 2454 090c 0196      		adiw r24,1
 2455 090e 8230      		cpi r24,2
 2456 0910 9105      		cpc r25,__zero_reg__
 2457 0912 01F4      		brne .L220
 2458               	.LBE5:
 2460               	.LM391:
 2461 0914 409A      		sbi 40-32,0
 502:../../../src/radio/cc2420/source/basic_rf.c ****     FASTSPI_WRITE_FIFO((uint8_t*) &pRTI->destAddr, 2);            // Dest. address
 2463               	.LM392:
 2464 0916 4098      		cbi 40-32,0
 2465 0918 8EE3      		ldi r24,lo8(62)
 2466 091a 8EBD      		out 78-32,r24
 2467               	.L221:
 2469               	.LM393:
 2470 091c 0DB4      		in __tmp_reg__,77-32
 2471 091e 07FE      		sbrs __tmp_reg__,7
 2472 0920 00C0      		rjmp .L221
 2474               	.LM394:
 2475 0922 80E0      		ldi r24,lo8(0)
 2476 0924 90E0      		ldi r25,hi8(0)
 2477               	.L223:
 2478               	.LBB6:
 2479 0926 F801      		movw r30,r16
 2480 0928 E80F      		add r30,r24
 2481 092a F91F      		adc r31,r25
 2482 092c 2081      		ld r18,Z
 2483 092e 2EBD      		out 78-32,r18
 2484               	.L222:
 2486               	.LM395:
 2487 0930 0DB4      		in __tmp_reg__,77-32
 2488 0932 07FE      		sbrs __tmp_reg__,7
 2489 0934 00C0      		rjmp .L222
 2491               	.LM396:
 2492 0936 0196      		adiw r24,1
 2493 0938 8230      		cpi r24,2
 2494 093a 9105      		cpc r25,__zero_reg__
 2495 093c 01F4      		brne .L223
 2496               	.LBE6:
 2498               	.LM397:
 2499 093e 409A      		sbi 40-32,0
 503:../../../src/radio/cc2420/source/basic_rf.c ****     FASTSPI_WRITE_FIFO((uint8_t*) &rfSettings.myAddr, 2);         // Source address
 2501               	.LM398:
 2502 0940 4098      		cbi 40-32,0
 2503 0942 8EE3      		ldi r24,lo8(62)
 2504 0944 8EBD      		out 78-32,r24
 2505               	.L224:
 2507               	.LM399:
 2508 0946 0DB4      		in __tmp_reg__,77-32
 2509 0948 07FE      		sbrs __tmp_reg__,7
 2510 094a 00C0      		rjmp .L224
 2512               	.LM400:
 2513 094c 80E0      		ldi r24,lo8(0)
 2514 094e 90E0      		ldi r25,hi8(0)
 2515               	.L226:
 2516               	.LBB7:
 455:../../../src/radio/cc2420/source/basic_rf.c **** uint8_t rf_tx_tdma_packet(RF_TX_INFO *pRTI, uint16_t slot_start_time, uint16_t tx_guard_time)
 2518               	.LM401:
 2519 0950 FC01      		movw r30,r24
 2520 0952 E050      		subi r30,lo8(-(rfSettings))
 2521 0954 F040      		sbci r31,hi8(-(rfSettings))
 2523               	.LM402:
 2524 0956 2681      		ldd r18,Z+6
 2525 0958 2EBD      		out 78-32,r18
 2526               	.L225:
 2528               	.LM403:
 2529 095a 0DB4      		in __tmp_reg__,77-32
 2530 095c 07FE      		sbrs __tmp_reg__,7
 2531 095e 00C0      		rjmp .L225
 2533               	.LM404:
 2534 0960 0196      		adiw r24,1
 2535 0962 8230      		cpi r24,2
 2536 0964 9105      		cpc r25,__zero_reg__
 2537 0966 01F4      		brne .L226
 2538               	.LBE7:
 2540               	.LM405:
 2541 0968 409A      		sbi 40-32,0
 504:../../../src/radio/cc2420/source/basic_rf.c **** 
 505:../../../src/radio/cc2420/source/basic_rf.c ****     nrk_high_speed_timer_wait(slot_start_time,tx_guard_time);
 2543               	.LM406:
 2544 096a C601      		movw r24,r12
 2545 096c B701      		movw r22,r14
 2546 096e 0E94 0000 		call nrk_high_speed_timer_wait
 506:../../../src/radio/cc2420/source/basic_rf.c ****     //nrk_clr_led(3);
 507:../../../src/radio/cc2420/source/basic_rf.c ****     /*
 508:../../../src/radio/cc2420/source/basic_rf.c ****     DISABLE_GLOBAL_INT();
 509:../../../src/radio/cc2420/source/basic_rf.c ****      nrk_set_led(3);
 510:../../../src/radio/cc2420/source/basic_rf.c ****     last=0;
 511:../../../src/radio/cc2420/source/basic_rf.c ****     do {
 512:../../../src/radio/cc2420/source/basic_rf.c ****     if(last==_nrk_get_high_speed_timer())
 513:../../../src/radio/cc2420/source/basic_rf.c ****     	{
 514:../../../src/radio/cc2420/source/basic_rf.c ****     	//while(1)
 515:../../../src/radio/cc2420/source/basic_rf.c ****     	//printf( "TX ERROR %d vs %d\r\n",_nrk_get_high_speed_timer(),tx_guard_time );
 516:../../../src/radio/cc2420/source/basic_rf.c ****     	break;
 517:../../../src/radio/cc2420/source/basic_rf.c ****     	}
 518:../../../src/radio/cc2420/source/basic_rf.c ****     last=_nrk_get_high_speed_timer();
 519:../../../src/radio/cc2420/source/basic_rf.c ****     }
 520:../../../src/radio/cc2420/source/basic_rf.c ****     while((volatile)last<(tx_guard_time));
 521:../../../src/radio/cc2420/source/basic_rf.c **** 
 522:../../../src/radio/cc2420/source/basic_rf.c ****     ENABLE_GLOBAL_INT();
 523:../../../src/radio/cc2420/source/basic_rf.c ****     nrk_clr_led(3);
 524:../../../src/radio/cc2420/source/basic_rf.c ****     */
 525:../../../src/radio/cc2420/source/basic_rf.c ****     /*
 526:../../../src/radio/cc2420/source/basic_rf.c ****         // Turn on RX if necessary
 527:../../../src/radio/cc2420/source/basic_rf.c ****         if (!rfSettings.receiveOn) {
 528:../../../src/radio/cc2420/source/basic_rf.c ****     		FASTSPI_STROBE(CC2420_SRXON);
 529:../../../src/radio/cc2420/source/basic_rf.c ****     		}
 530:../../../src/radio/cc2420/source/basic_rf.c **** 
 531:../../../src/radio/cc2420/source/basic_rf.c ****         // Wait for the RSSI value to become valid
 532:../../../src/radio/cc2420/source/basic_rf.c ****         do {
 533:../../../src/radio/cc2420/source/basic_rf.c ****             FASTSPI_UPD_STATUS(spiStatusByte);
 534:../../../src/radio/cc2420/source/basic_rf.c ****         } while (!(spiStatusByte & BM(CC2420_RSSI_VALID)));
 535:../../../src/radio/cc2420/source/basic_rf.c **** 
 536:../../../src/radio/cc2420/source/basic_rf.c ****     	// TX begins after the CCA check has passed
 537:../../../src/radio/cc2420/source/basic_rf.c ****         do {
 538:../../../src/radio/cc2420/source/basic_rf.c ****     		FASTSPI_STROBE(CC2420_STXONCCA);
 539:../../../src/radio/cc2420/source/basic_rf.c ****     		FASTSPI_UPD_STATUS(spiStatusByte);
 540:../../../src/radio/cc2420/source/basic_rf.c ****     		halWait(100);
 541:../../../src/radio/cc2420/source/basic_rf.c ****         } while (!(spiStatusByte & BM(CC2420_TX_ACTIVE)));
 542:../../../src/radio/cc2420/source/basic_rf.c ****     */
 543:../../../src/radio/cc2420/source/basic_rf.c ****     if (pRTI->cca == TRUE)
 2548               	.LM407:
 2549 0972 D801      		movw r26,r16
 2550 0974 1596      		adiw r26,5
 2551 0976 8C91      		ld r24,X
 2552 0978 1597      		sbiw r26,5
 2553 097a 8823      		tst r24
 2554 097c 01F0      		breq .L227
 2555               	.LBB8:
 544:../../../src/radio/cc2420/source/basic_rf.c ****     {
 545:../../../src/radio/cc2420/source/basic_rf.c ****         uint8_t cnt;
 546:../../../src/radio/cc2420/source/basic_rf.c ****         if (!rfSettings.receiveOn)
 2557               	.LM408:
 2558 097e 8091 0000 		lds r24,rfSettings+8
 2559 0982 8823      		tst r24
 2560 0984 01F4      		brne .L254
 547:../../../src/radio/cc2420/source/basic_rf.c ****         {
 548:../../../src/radio/cc2420/source/basic_rf.c ****             FASTSPI_STROBE (CC2420_SRXON);
 2562               	.LM409:
 2563 0986 4098      		cbi 40-32,0
 2564 0988 83E0      		ldi r24,lo8(3)
 2565 098a 8EBD      		out 78-32,r24
 2566               	.L229:
 2568               	.LM410:
 2569 098c 0DB4      		in __tmp_reg__,77-32
 2570 098e 07FE      		sbrs __tmp_reg__,7
 2571 0990 00C0      		rjmp .L229
 2573               	.LM411:
 2574 0992 409A      		sbi 40-32,0
 2575               	.L254:
 549:../../../src/radio/cc2420/source/basic_rf.c ****         }
 550:../../../src/radio/cc2420/source/basic_rf.c **** 
 551:../../../src/radio/cc2420/source/basic_rf.c ****         // Wait for the RSSI value to become valid
 552:../../../src/radio/cc2420/source/basic_rf.c ****         do
 553:../../../src/radio/cc2420/source/basic_rf.c ****         {
 554:../../../src/radio/cc2420/source/basic_rf.c ****             FASTSPI_UPD_STATUS (spiStatusByte);
 2577               	.LM412:
 2578 0994 4098      		cbi 40-32,0
 2579 0996 1EBC      		out 78-32,__zero_reg__
 2580               	.L230:
 2582               	.LM413:
 2583 0998 0DB4      		in __tmp_reg__,77-32
 2584 099a 07FE      		sbrs __tmp_reg__,7
 2585 099c 00C0      		rjmp .L230
 2587               	.LM414:
 2588 099e 8EB5      		in r24,78-32
 2589 09a0 409A      		sbi 40-32,0
 555:../../../src/radio/cc2420/source/basic_rf.c ****         }
 556:../../../src/radio/cc2420/source/basic_rf.c ****         while (!(spiStatusByte & BM (CC2420_RSSI_VALID)));
 2591               	.LM415:
 2592 09a2 81FF      		sbrs r24,1
 2593 09a4 00C0      		rjmp .L254
 2595               	.LM416:
 2596 09a6 20E0      		ldi r18,lo8(0)
 557:../../../src/radio/cc2420/source/basic_rf.c **** 
 558:../../../src/radio/cc2420/source/basic_rf.c ****         // TX begins after the CCA check has passed
 559:../../../src/radio/cc2420/source/basic_rf.c ****         cnt = 0;
 560:../../../src/radio/cc2420/source/basic_rf.c ****         do
 561:../../../src/radio/cc2420/source/basic_rf.c ****         {
 562:../../../src/radio/cc2420/source/basic_rf.c ****             FASTSPI_STROBE (CC2420_STXONCCA);
 2598               	.LM417:
 2599 09a8 A5E0      		ldi r26,lo8(5)
 2600 09aa EA2E      		mov r14,r26
 2601               	.L236:
 2602 09ac 4098      		cbi 40-32,0
 2603 09ae EEBC      		out 78-32,r14
 2604               	.L232:
 2606               	.LM418:
 2607 09b0 0DB4      		in __tmp_reg__,77-32
 2608 09b2 07FE      		sbrs __tmp_reg__,7
 2609 09b4 00C0      		rjmp .L232
 2611               	.LM419:
 2612 09b6 409A      		sbi 40-32,0
 563:../../../src/radio/cc2420/source/basic_rf.c ****             FASTSPI_UPD_STATUS (spiStatusByte);
 2614               	.LM420:
 2615 09b8 4098      		cbi 40-32,0
 2616 09ba 1EBC      		out 78-32,__zero_reg__
 2617               	.L233:
 2619               	.LM421:
 2620 09bc 0DB4      		in __tmp_reg__,77-32
 2621 09be 07FE      		sbrs __tmp_reg__,7
 2622 09c0 00C0      		rjmp .L233
 2624               	.LM422:
 2625 09c2 CEB4      		in r12,78-32
 2626 09c4 409A      		sbi 40-32,0
 564:../../../src/radio/cc2420/source/basic_rf.c ****             cnt++;
 2628               	.LM423:
 2629 09c6 2F5F      		subi r18,lo8(-(1))
 565:../../../src/radio/cc2420/source/basic_rf.c ****             if (cnt > 100)
 2631               	.LM424:
 2632 09c8 2536      		cpi r18,lo8(101)
 2633 09ca 01F4      		brne .L234
 566:../../../src/radio/cc2420/source/basic_rf.c ****             {
 567:../../../src/radio/cc2420/source/basic_rf.c ****                 ENABLE_GLOBAL_INT ();
 2635               	.LM425:
 2636               	/* #APP */
 2637               	 ;  567 "../../../src/radio/cc2420/source/basic_rf.c" 1
 2638 09cc 7894      		sei
 2639               		
 2640               	 ;  0 "" 2
 568:../../../src/radio/cc2420/source/basic_rf.c ****                 nrk_sem_post(radio_sem);
 2642               	.LM426:
 2643               	/* #NOAPP */
 2644 09ce 8091 0000 		lds r24,radio_sem
 2645 09d2 9091 0000 		lds r25,radio_sem+1
 2646 09d6 0E94 0000 		call nrk_sem_post
 569:../../../src/radio/cc2420/source/basic_rf.c ****                 return FALSE;
 2648               	.LM427:
 2649 09da 80E0      		ldi r24,lo8(0)
 2650 09dc 00C0      		rjmp .L235
 2651               	.L234:
 570:../../../src/radio/cc2420/source/basic_rf.c ****             }
 571:../../../src/radio/cc2420/source/basic_rf.c ****             halWait (100);
 2653               	.LM428:
 2654 09de 84E6      		ldi r24,lo8(100)
 2655 09e0 90E0      		ldi r25,hi8(100)
 2656 09e2 2B83      		std Y+3,r18
 2657 09e4 0E94 0000 		call halWait
 572:../../../src/radio/cc2420/source/basic_rf.c ****         }
 573:../../../src/radio/cc2420/source/basic_rf.c ****         while (!(spiStatusByte & BM (CC2420_TX_ACTIVE)));
 2659               	.LM429:
 2660 09e8 2B81      		ldd r18,Y+3
 2661 09ea C3FE      		sbrs r12,3
 2662 09ec 00C0      		rjmp .L236
 2663 09ee 00C0      		rjmp .L237
 2664               	.L227:
 2665               	.LBE8:
 574:../../../src/radio/cc2420/source/basic_rf.c ****     }
 575:../../../src/radio/cc2420/source/basic_rf.c ****     else
 576:../../../src/radio/cc2420/source/basic_rf.c ****         FASTSPI_STROBE (CC2420_STXON);
 2667               	.LM430:
 2668 09f0 4098      		cbi 40-32,0
 2669 09f2 84E0      		ldi r24,lo8(4)
 2670 09f4 8EBD      		out 78-32,r24
 2671               	.L238:
 2673               	.LM431:
 2674 09f6 0DB4      		in __tmp_reg__,77-32
 2675 09f8 07FE      		sbrs __tmp_reg__,7
 2676 09fa 00C0      		rjmp .L238
 2678               	.LM432:
 2679 09fc 409A      		sbi 40-32,0
 2680               	.L237:
 577:../../../src/radio/cc2420/source/basic_rf.c ****     //nrk_gpio_set(DEBUG_0);
 578:../../../src/radio/cc2420/source/basic_rf.c **** 
 579:../../../src/radio/cc2420/source/basic_rf.c **** 
 580:../../../src/radio/cc2420/source/basic_rf.c ****     // Fill in the rest of the packet now
 581:../../../src/radio/cc2420/source/basic_rf.c ****     FASTSPI_WRITE_FIFO((uint8_t*) pRTI->pPayload, pRTI->length);  // Payload
 2682               	.LM433:
 2683 09fe 4098      		cbi 40-32,0
 2684 0a00 8EE3      		ldi r24,lo8(62)
 2685 0a02 8EBD      		out 78-32,r24
 2686               	.L239:
 2688               	.LM434:
 2689 0a04 0DB4      		in __tmp_reg__,77-32
 2690 0a06 07FE      		sbrs __tmp_reg__,7
 2691 0a08 00C0      		rjmp .L239
 2693               	.LM435:
 2694 0a0a 40E0      		ldi r20,lo8(0)
 2695 0a0c 00C0      		rjmp .L240
 2696               	.L242:
 2697               	.LBB9:
 2699               	.LM436:
 2700 0a0e D801      		movw r26,r16
 2701 0a10 1396      		adiw r26,3
 2702 0a12 ED91      		ld r30,X+
 2703 0a14 FC91      		ld r31,X
 2704 0a16 1497      		sbiw r26,3+1
 2705 0a18 E80F      		add r30,r24
 2706 0a1a F91F      		adc r31,r25
 2707 0a1c 8081      		ld r24,Z
 2708 0a1e 8EBD      		out 78-32,r24
 2709               	.L241:
 2711               	.LM437:
 2712 0a20 0DB4      		in __tmp_reg__,77-32
 2713 0a22 07FE      		sbrs __tmp_reg__,7
 2714 0a24 00C0      		rjmp .L241
 2716               	.LM438:
 2717 0a26 4F5F      		subi r20,lo8(-(1))
 2718               	.L240:
 2720               	.LM439:
 2721 0a28 842F      		mov r24,r20
 2722 0a2a 90E0      		ldi r25,lo8(0)
 2723 0a2c F801      		movw r30,r16
 2724 0a2e 2281      		ldd r18,Z+2
 2725 0a30 3327      		clr r19
 2726 0a32 27FD      		sbrc r18,7
 2727 0a34 3095      		com r19
 2728 0a36 8217      		cp r24,r18
 2729 0a38 9307      		cpc r25,r19
 2730 0a3a 04F0      		brlt .L242
 2731               	.LBE9:
 2733               	.LM440:
 2734 0a3c 409A      		sbi 40-32,0
 582:../../../src/radio/cc2420/source/basic_rf.c ****     FASTSPI_WRITE_FIFO((uint8_t*) &checksum, 1);         // Checksum
 2736               	.LM441:
 2737 0a3e 4098      		cbi 40-32,0
 2738 0a40 8EE3      		ldi r24,lo8(62)
 2739 0a42 8EBD      		out 78-32,r24
 2740               	.L243:
 2742               	.LM442:
 2743 0a44 0DB4      		in __tmp_reg__,77-32
 2744 0a46 07FE      		sbrs __tmp_reg__,7
 2745 0a48 00C0      		rjmp .L243
 2746               	.LBB10:
 2748               	.LM443:
 2749 0a4a BEBC      		out 78-32,r11
 2750               	.L244:
 2752               	.LM444:
 2753 0a4c 0DB4      		in __tmp_reg__,77-32
 2754 0a4e 07FE      		sbrs __tmp_reg__,7
 2755 0a50 00C0      		rjmp .L244
 2756               	.LBE10:
 2758               	.LM445:
 2759 0a52 409A      		sbi 40-32,0
 2760               	.L245:
 583:../../../src/radio/cc2420/source/basic_rf.c **** 
 584:../../../src/radio/cc2420/source/basic_rf.c **** 
 585:../../../src/radio/cc2420/source/basic_rf.c **** 
 586:../../../src/radio/cc2420/source/basic_rf.c ****     //nrk_spin_wait_us(200);
 587:../../../src/radio/cc2420/source/basic_rf.c **** //  FASTSPI_STROBE(CC2420_STXON);
 588:../../../src/radio/cc2420/source/basic_rf.c ****     // Wait for the transmission to begin before exiting (makes sure that this function cannot be c
 589:../../../src/radio/cc2420/source/basic_rf.c ****     // a second time, and thereby cancelling the first transmission (observe the FIFOP + SFD test a
 590:../../../src/radio/cc2420/source/basic_rf.c ****     while (!SFD_IS_1);
 2762               	.LM446:
 2763 0a54 4E9B      		sbis 41-32,6
 2764 0a56 00C0      		rjmp .L245
 591:../../../src/radio/cc2420/source/basic_rf.c ****     success = TRUE;
 592:../../../src/radio/cc2420/source/basic_rf.c **** 
 593:../../../src/radio/cc2420/source/basic_rf.c ****     // Turn interrupts back on
 594:../../../src/radio/cc2420/source/basic_rf.c **** //	ENABLE_GLOBAL_INT();
 595:../../../src/radio/cc2420/source/basic_rf.c **** 
 596:../../../src/radio/cc2420/source/basic_rf.c ****     // Wait for the acknowledge to be received, if any
 597:../../../src/radio/cc2420/source/basic_rf.c ****     /*if (pRTI->ackRequest) {
 598:../../../src/radio/cc2420/source/basic_rf.c ****     	rfSettings.ackReceived = FALSE;
 599:../../../src/radio/cc2420/source/basic_rf.c **** 
 600:../../../src/radio/cc2420/source/basic_rf.c ****     	// Wait for the SFD to go low again
 601:../../../src/radio/cc2420/source/basic_rf.c ****     	while (SFD_IS_1);
 602:../../../src/radio/cc2420/source/basic_rf.c ****         // We'll enter RX automatically, so just wait until we can be sure that the ack reception s
 603:../../../src/radio/cc2420/source/basic_rf.c ****         // The timeout consists of a 12-symbol turnaround time, the ack packet duration, and a smal
 604:../../../src/radio/cc2420/source/basic_rf.c ****         halWait((12 * RF_SYMBOL_DURATION) + (RF_ACK_DURATION) + (2 * RF_SYMBOL_DURATION) + 100);
 605:../../../src/radio/cc2420/source/basic_rf.c **** 
 606:../../../src/radio/cc2420/source/basic_rf.c ****     	// If an acknowledgment has been received (by the FIFOP interrupt), the ackReceived flag shoul
 607:../../../src/radio/cc2420/source/basic_rf.c ****     	success = rfSettings.ackReceived;
 608:../../../src/radio/cc2420/source/basic_rf.c ****     }*/
 609:../../../src/radio/cc2420/source/basic_rf.c **** 
 610:../../../src/radio/cc2420/source/basic_rf.c **** 
 611:../../../src/radio/cc2420/source/basic_rf.c ****     // Turn off the receiver if it should not continue to be enabled
 612:../../../src/radio/cc2420/source/basic_rf.c ****     DISABLE_GLOBAL_INT();
 2766               	.LM447:
 2767               	/* #APP */
 2768               	 ;  612 "../../../src/radio/cc2420/source/basic_rf.c" 1
 2769 0a58 F894      		cli
 2770               		
 2771               	 ;  0 "" 2
 2772               	/* #NOAPP */
 2773               	.L246:
 613:../../../src/radio/cc2420/source/basic_rf.c ****     // XXX hack, temp out
 614:../../../src/radio/cc2420/source/basic_rf.c ****     //if (!rfSettings.receiveOn) { while (SFD_IS_1); /*FASTSPI_STROBE(CC2420_SRFOFF);*/ }
 615:../../../src/radio/cc2420/source/basic_rf.c ****     // while (SFD_IS_1);
 616:../../../src/radio/cc2420/source/basic_rf.c ****     while (SFD_IS_1); // wait for packet to finish
 2775               	.LM448:
 2776 0a5a 4E99      		sbic 41-32,6
 2777 0a5c 00C0      		rjmp .L246
 617:../../../src/radio/cc2420/source/basic_rf.c **** 
 618:../../../src/radio/cc2420/source/basic_rf.c ****     FASTSPI_STROBE(CC2420_SFLUSHRX);
 2779               	.LM449:
 2780 0a5e 4098      		cbi 40-32,0
 2781 0a60 88E0      		ldi r24,lo8(8)
 2782 0a62 8EBD      		out 78-32,r24
 2783               	.L247:
 2785               	.LM450:
 2786 0a64 0DB4      		in __tmp_reg__,77-32
 2787 0a66 07FE      		sbrs __tmp_reg__,7
 2788 0a68 00C0      		rjmp .L247
 2790               	.LM451:
 2791 0a6a 409A      		sbi 40-32,0
 619:../../../src/radio/cc2420/source/basic_rf.c ****     FASTSPI_STROBE(CC2420_SFLUSHRX);
 2793               	.LM452:
 2794 0a6c 4098      		cbi 40-32,0
 2795 0a6e 88E0      		ldi r24,lo8(8)
 2796 0a70 8EBD      		out 78-32,r24
 2797               	.L248:
 2799               	.LM453:
 2800 0a72 0DB4      		in __tmp_reg__,77-32
 2801 0a74 07FE      		sbrs __tmp_reg__,7
 2802 0a76 00C0      		rjmp .L248
 2804               	.LM454:
 2805 0a78 409A      		sbi 40-32,0
 620:../../../src/radio/cc2420/source/basic_rf.c ****     FASTSPI_STROBE(CC2420_SFLUSHTX);
 2807               	.LM455:
 2808 0a7a 4098      		cbi 40-32,0
 2809 0a7c 89E0      		ldi r24,lo8(9)
 2810 0a7e 8EBD      		out 78-32,r24
 2811               	.L249:
 2813               	.LM456:
 2814 0a80 0DB4      		in __tmp_reg__,77-32
 2815 0a82 07FE      		sbrs __tmp_reg__,7
 2816 0a84 00C0      		rjmp .L249
 2818               	.LM457:
 2819 0a86 409A      		sbi 40-32,0
 621:../../../src/radio/cc2420/source/basic_rf.c ****     FASTSPI_STROBE(CC2420_SFLUSHTX);
 2821               	.LM458:
 2822 0a88 4098      		cbi 40-32,0
 2823 0a8a 89E0      		ldi r24,lo8(9)
 2824 0a8c 8EBD      		out 78-32,r24
 2825               	.L250:
 2827               	.LM459:
 2828 0a8e 0DB4      		in __tmp_reg__,77-32
 2829 0a90 07FE      		sbrs __tmp_reg__,7
 2830 0a92 00C0      		rjmp .L250
 2832               	.LM460:
 2833 0a94 409A      		sbi 40-32,0
 622:../../../src/radio/cc2420/source/basic_rf.c **** 
 623:../../../src/radio/cc2420/source/basic_rf.c **** #ifdef CC2420_OSC_OPT
 624:../../../src/radio/cc2420/source/basic_rf.c ****     FASTSPI_STROBE(CC2420_SXOSCOFF);
 625:../../../src/radio/cc2420/source/basic_rf.c **** #endif
 626:../../../src/radio/cc2420/source/basic_rf.c ****     FASTSPI_STROBE(CC2420_SRFOFF);  // shut off radio
 2835               	.LM461:
 2836 0a96 4098      		cbi 40-32,0
 2837 0a98 86E0      		ldi r24,lo8(6)
 2838 0a9a 8EBD      		out 78-32,r24
 2839               	.L251:
 2841               	.LM462:
 2842 0a9c 0DB4      		in __tmp_reg__,77-32
 2843 0a9e 07FE      		sbrs __tmp_reg__,7
 2844 0aa0 00C0      		rjmp .L251
 2846               	.LM463:
 2847 0aa2 409A      		sbi 40-32,0
 627:../../../src/radio/cc2420/source/basic_rf.c ****     ENABLE_GLOBAL_INT();
 2849               	.LM464:
 2850               	/* #APP */
 2851               	 ;  627 "../../../src/radio/cc2420/source/basic_rf.c" 1
 2852 0aa4 7894      		sei
 2853               		
 2854               	 ;  0 "" 2
 628:../../../src/radio/cc2420/source/basic_rf.c **** 
 629:../../../src/radio/cc2420/source/basic_rf.c **** 
 630:../../../src/radio/cc2420/source/basic_rf.c ****     // Increment the sequence number, and return the result
 631:../../../src/radio/cc2420/source/basic_rf.c ****     rfSettings.txSeqNumber++;
 2856               	.LM465:
 2857               	/* #NOAPP */
 2858 0aa6 8091 0000 		lds r24,rfSettings+2
 2859 0aaa 8F5F      		subi r24,lo8(-(1))
 2860 0aac 8093 0000 		sts rfSettings+2,r24
 632:../../../src/radio/cc2420/source/basic_rf.c **** //	while (SFD_IS_1);
 633:../../../src/radio/cc2420/source/basic_rf.c **** #ifdef RADIO_PRIORITY_CEILING
 634:../../../src/radio/cc2420/source/basic_rf.c ****     nrk_sem_post(radio_sem);
 2862               	.LM466:
 2863 0ab0 8091 0000 		lds r24,radio_sem
 2864 0ab4 9091 0000 		lds r25,radio_sem+1
 2865 0ab8 0E94 0000 		call nrk_sem_post
 635:../../../src/radio/cc2420/source/basic_rf.c **** #endif
 636:../../../src/radio/cc2420/source/basic_rf.c **** 
 637:../../../src/radio/cc2420/source/basic_rf.c ****     return success;
 2867               	.LM467:
 2868 0abc 81E0      		ldi r24,lo8(1)
 2869               	.L235:
 2870               	/* epilogue start */
 638:../../../src/radio/cc2420/source/basic_rf.c **** 
 639:../../../src/radio/cc2420/source/basic_rf.c **** }
 2872               	.LM468:
 2873 0abe 0F90      		pop __tmp_reg__
 2874 0ac0 0F90      		pop __tmp_reg__
 2875 0ac2 0F90      		pop __tmp_reg__
 2876 0ac4 CF91      		pop r28
 2877 0ac6 DF91      		pop r29
 2878 0ac8 1F91      		pop r17
 2879 0aca 0F91      		pop r16
 2880 0acc FF90      		pop r15
 2881 0ace EF90      		pop r14
 2882 0ad0 DF90      		pop r13
 2883 0ad2 CF90      		pop r12
 2884 0ad4 BF90      		pop r11
 2885 0ad6 0895      		ret
 2899               	.Lscope23:
 2901               		.stabd	78,0,0
 2904               	.global	rf_tx_packet
 2906               	rf_tx_packet:
 2907               		.stabd	46,0,0
 640:../../../src/radio/cc2420/source/basic_rf.c **** 
 641:../../../src/radio/cc2420/source/basic_rf.c **** //-------------------------------------------------------------------------------------------------
 642:../../../src/radio/cc2420/source/basic_rf.c **** //  BYTE rf_tx_packet(RF_TX_INFO *pRTI)
 643:../../../src/radio/cc2420/source/basic_rf.c **** //
 644:../../../src/radio/cc2420/source/basic_rf.c **** //  DESCRIPTION:
 645:../../../src/radio/cc2420/source/basic_rf.c **** //		Transmits a packet using the IEEE 802.15.4 MAC data packet format with short addresses. CCA is
 646:../../../src/radio/cc2420/source/basic_rf.c **** //		measured only once before backet transmission (not compliant with 802.15.4 CSMA-CA).
 647:../../../src/radio/cc2420/source/basic_rf.c **** //		The function returns:
 648:../../../src/radio/cc2420/source/basic_rf.c **** //			- When pRTI->ackRequest is FALSE: After the transmission has begun (SFD gone high)
 649:../../../src/radio/cc2420/source/basic_rf.c **** //			- When pRTI->ackRequest is TRUE: After the acknowledgment has been received/declared missing.
 650:../../../src/radio/cc2420/source/basic_rf.c **** //		The acknowledgment is received through the FIFOP interrupt.
 651:../../../src/radio/cc2420/source/basic_rf.c **** //
 652:../../../src/radio/cc2420/source/basic_rf.c **** //  ARGUMENTS:
 653:../../../src/radio/cc2420/source/basic_rf.c **** //      RF_TX_INFO *pRTI
 654:../../../src/radio/cc2420/source/basic_rf.c **** //          The transmission structure, which contains all relevant info about the packet.
 655:../../../src/radio/cc2420/source/basic_rf.c **** //
 656:../../../src/radio/cc2420/source/basic_rf.c **** //  RETURN VALUE:
 657:../../../src/radio/cc2420/source/basic_rf.c **** //		uint8_t
 658:../../../src/radio/cc2420/source/basic_rf.c **** //			Successful transmission (acknowledgment received)
 659:../../../src/radio/cc2420/source/basic_rf.c **** //-------------------------------------------------------------------------------------------------
 660:../../../src/radio/cc2420/source/basic_rf.c **** uint8_t rf_tx_packet(RF_TX_INFO *pRTI)
 661:../../../src/radio/cc2420/source/basic_rf.c **** {
 2909               	.LM469:
 2910               	.LFBB24:
 2911 0ad8 FF92      		push r15
 2912 0ada 0F93      		push r16
 2913 0adc 1F93      		push r17
 2914 0ade DF93      		push r29
 2915 0ae0 CF93      		push r28
 2916 0ae2 00D0      		rcall .
 2917 0ae4 CDB7      		in r28,__SP_L__
 2918 0ae6 DEB7      		in r29,__SP_H__
 2919               	/* prologue: function */
 2920               	/* frame size = 2 */
 2921               	/* stack size = 7 */
 2922               	.L__stack_usage = 7
 2923 0ae8 8C01      		movw r16,r24
 662:../../../src/radio/cc2420/source/basic_rf.c ****     uint16_t frameControlField;
 663:../../../src/radio/cc2420/source/basic_rf.c ****     uint8_t packetLength, length;
 664:../../../src/radio/cc2420/source/basic_rf.c ****     uint8_t success;
 665:../../../src/radio/cc2420/source/basic_rf.c ****     uint8_t spiStatusByte;
 666:../../../src/radio/cc2420/source/basic_rf.c ****     uint8_t checksum,i;
 667:../../../src/radio/cc2420/source/basic_rf.c **** 
 668:../../../src/radio/cc2420/source/basic_rf.c **** #ifdef RADIO_PRIORITY_CEILING
 669:../../../src/radio/cc2420/source/basic_rf.c ****     nrk_sem_pend(radio_sem);
 2925               	.LM470:
 2926 0aea 8091 0000 		lds r24,radio_sem
 2927 0aee 9091 0000 		lds r25,radio_sem+1
 2928 0af2 0E94 0000 		call nrk_sem_pend
 670:../../../src/radio/cc2420/source/basic_rf.c **** #endif
 671:../../../src/radio/cc2420/source/basic_rf.c **** 
 672:../../../src/radio/cc2420/source/basic_rf.c **** #ifdef CC2420_OSC_OPT
 673:../../../src/radio/cc2420/source/basic_rf.c ****     FASTSPI_STROBE(CC2420_SXOSCON);
 674:../../../src/radio/cc2420/source/basic_rf.c ****     nrk_spin_wait_us(OSC_STARTUP_DELAY);
 675:../../../src/radio/cc2420/source/basic_rf.c **** #endif
 676:../../../src/radio/cc2420/source/basic_rf.c ****     if(security_enable)
 2930               	.LM471:
 2931 0af6 8091 0000 		lds r24,security_enable
 2932 0afa 8823      		tst r24
 2933 0afc 01F0      		breq .L296
 677:../../../src/radio/cc2420/source/basic_rf.c ****         FASTSPI_STROBE(CC2420_STXENC);
 2935               	.LM472:
 2936 0afe 4098      		cbi 40-32,0
 2937 0b00 8DE0      		ldi r24,lo8(13)
 2938 0b02 8EBD      		out 78-32,r24
 2939               	.L297:
 2941               	.LM473:
 2942 0b04 0DB4      		in __tmp_reg__,77-32
 2943 0b06 07FE      		sbrs __tmp_reg__,7
 2944 0b08 00C0      		rjmp .L297
 2946               	.LM474:
 2947 0b0a 409A      		sbi 40-32,0
 2948               	.L296:
 678:../../../src/radio/cc2420/source/basic_rf.c **** 
 679:../../../src/radio/cc2420/source/basic_rf.c ****     checksum=0;
 680:../../../src/radio/cc2420/source/basic_rf.c ****     for(i=0; i<pRTI->length; i++ )
 2950               	.LM475:
 2951 0b0c D801      		movw r26,r16
 2952 0b0e 1296      		adiw r26,2
 2953 0b10 3C91      		ld r19,X
 2954 0b12 1297      		sbiw r26,2
 2955 0b14 432F      		mov r20,r19
 2956 0b16 5527      		clr r21
 2957 0b18 47FD      		sbrc r20,7
 2958 0b1a 5095      		com r21
 679:../../../src/radio/cc2420/source/basic_rf.c ****     checksum=0;
 2960               	.LM476:
 2961 0b1c 20E0      		ldi r18,lo8(0)
 2963               	.LM477:
 2964 0b1e 60E0      		ldi r22,lo8(0)
 2965 0b20 00C0      		rjmp .L298
 2966               	.L299:
 681:../../../src/radio/cc2420/source/basic_rf.c ****     {
 682:../../../src/radio/cc2420/source/basic_rf.c ****         // lets do our own payload checksum because we don't trust the CRC
 683:../../../src/radio/cc2420/source/basic_rf.c ****         checksum+=pRTI->pPayload[i];
 2968               	.LM478:
 2969 0b22 D801      		movw r26,r16
 2970 0b24 1396      		adiw r26,3
 2971 0b26 ED91      		ld r30,X+
 2972 0b28 FC91      		ld r31,X
 2973 0b2a 1497      		sbiw r26,3+1
 2974 0b2c E80F      		add r30,r24
 2975 0b2e F91F      		adc r31,r25
 2976 0b30 8081      		ld r24,Z
 2977 0b32 280F      		add r18,r24
 680:../../../src/radio/cc2420/source/basic_rf.c ****     for(i=0; i<pRTI->length; i++ )
 2979               	.LM479:
 2980 0b34 6F5F      		subi r22,lo8(-(1))
 2981               	.L298:
 680:../../../src/radio/cc2420/source/basic_rf.c ****     for(i=0; i<pRTI->length; i++ )
 2983               	.LM480:
 2984 0b36 862F      		mov r24,r22
 2985 0b38 90E0      		ldi r25,lo8(0)
 2986 0b3a 8417      		cp r24,r20
 2987 0b3c 9507      		cpc r25,r21
 2988 0b3e 04F0      		brlt .L299
 684:../../../src/radio/cc2420/source/basic_rf.c ****     }
 685:../../../src/radio/cc2420/source/basic_rf.c ****     // Write the packet to the TX FIFO (the FCS is appended automatically when AUTOCRC is enabled)
 686:../../../src/radio/cc2420/source/basic_rf.c **** 
 687:../../../src/radio/cc2420/source/basic_rf.c ****     // These are only the MAC AGNOSTIC parameters...
 688:../../../src/radio/cc2420/source/basic_rf.c ****     // Slots for example are at a slighly higher later since they assume TDMA
 689:../../../src/radio/cc2420/source/basic_rf.c ****     packetLength = pRTI->length + RF_PACKET_OVERHEAD_SIZE + CHECKSUM_OVERHEAD;
 2990               	.LM481:
 2991 0b40 832F      		mov r24,r19
 2992 0b42 845F      		subi r24,lo8(-(12))
 690:../../../src/radio/cc2420/source/basic_rf.c ****     if(security_enable) packetLength+=4;  // for CTR counter
 2994               	.LM482:
 2995 0b44 9091 0000 		lds r25,security_enable
 2996 0b48 9111      		cpse r25,__zero_reg__
 2998               	.LM483:
 2999 0b4a 8C5F      		subi r24,lo8(-(4))
 3000               	.L300:
 691:../../../src/radio/cc2420/source/basic_rf.c **** 
 692:../../../src/radio/cc2420/source/basic_rf.c **** 
 693:../../../src/radio/cc2420/source/basic_rf.c ****     // XXX 2 below are hacks...
 694:../../../src/radio/cc2420/source/basic_rf.c ****     FASTSPI_STROBE(CC2420_SFLUSHRX);
 3002               	.LM484:
 3003 0b4c 4098      		cbi 40-32,0
 3004 0b4e 98E0      		ldi r25,lo8(8)
 3005 0b50 9EBD      		out 78-32,r25
 3006               	.L301:
 3008               	.LM485:
 3009 0b52 0DB4      		in __tmp_reg__,77-32
 3010 0b54 07FE      		sbrs __tmp_reg__,7
 3011 0b56 00C0      		rjmp .L301
 3013               	.LM486:
 3014 0b58 409A      		sbi 40-32,0
 695:../../../src/radio/cc2420/source/basic_rf.c ****     FASTSPI_STROBE(CC2420_SFLUSHRX);
 3016               	.LM487:
 3017 0b5a 4098      		cbi 40-32,0
 3018 0b5c 98E0      		ldi r25,lo8(8)
 3019 0b5e 9EBD      		out 78-32,r25
 3020               	.L302:
 3022               	.LM488:
 3023 0b60 0DB4      		in __tmp_reg__,77-32
 3024 0b62 07FE      		sbrs __tmp_reg__,7
 3025 0b64 00C0      		rjmp .L302
 3027               	.LM489:
 3028 0b66 409A      		sbi 40-32,0
 3029               	.L402:
 696:../../../src/radio/cc2420/source/basic_rf.c ****     // Wait until the transceiver is idle
 697:../../../src/radio/cc2420/source/basic_rf.c ****     while (FIFOP_IS_1 || SFD_IS_1);
 3031               	.LM490:
 3032 0b68 6799      		sbic 44-32,7
 3033 0b6a 00C0      		rjmp .L402
 3035               	.LM491:
 3036 0b6c 4E99      		sbic 41-32,6
 3037 0b6e 00C0      		rjmp .L402
 698:../../../src/radio/cc2420/source/basic_rf.c ****     // Turn off global interrupts to avoid interference on the SPI interface
 699:../../../src/radio/cc2420/source/basic_rf.c ****     DISABLE_GLOBAL_INT();
 3039               	.LM492:
 3040               	/* #APP */
 3041               	 ;  699 "../../../src/radio/cc2420/source/basic_rf.c" 1
 3042 0b70 F894      		cli
 3043               		
 3044               	 ;  0 "" 2
 700:../../../src/radio/cc2420/source/basic_rf.c ****     // Flush the TX FIFO just in case...
 701:../../../src/radio/cc2420/source/basic_rf.c ****     FASTSPI_STROBE(CC2420_SFLUSHTX);
 3046               	.LM493:
 3047               	/* #NOAPP */
 3048 0b72 4098      		cbi 40-32,0
 3049 0b74 99E0      		ldi r25,lo8(9)
 3050 0b76 9EBD      		out 78-32,r25
 3051               	.L304:
 3053               	.LM494:
 3054 0b78 0DB4      		in __tmp_reg__,77-32
 3055 0b7a 07FE      		sbrs __tmp_reg__,7
 3056 0b7c 00C0      		rjmp .L304
 3058               	.LM495:
 3059 0b7e 409A      		sbi 40-32,0
 702:../../../src/radio/cc2420/source/basic_rf.c ****     FASTSPI_STROBE(CC2420_SFLUSHTX);
 3061               	.LM496:
 3062 0b80 4098      		cbi 40-32,0
 3063 0b82 99E0      		ldi r25,lo8(9)
 3064 0b84 9EBD      		out 78-32,r25
 3065               	.L305:
 3067               	.LM497:
 3068 0b86 0DB4      		in __tmp_reg__,77-32
 3069 0b88 07FE      		sbrs __tmp_reg__,7
 3070 0b8a 00C0      		rjmp .L305
 3072               	.LM498:
 3073 0b8c 409A      		sbi 40-32,0
 703:../../../src/radio/cc2420/source/basic_rf.c **** 
 704:../../../src/radio/cc2420/source/basic_rf.c ****     /*
 705:../../../src/radio/cc2420/source/basic_rf.c ****         // Turn on RX if necessary
 706:../../../src/radio/cc2420/source/basic_rf.c ****         if (!rfSettings.receiveOn) {
 707:../../../src/radio/cc2420/source/basic_rf.c ****     		FASTSPI_STROBE(CC2420_SRXON);
 708:../../../src/radio/cc2420/source/basic_rf.c ****     		}
 709:../../../src/radio/cc2420/source/basic_rf.c **** 
 710:../../../src/radio/cc2420/source/basic_rf.c ****         // Wait for the RSSI value to become valid
 711:../../../src/radio/cc2420/source/basic_rf.c ****         do {
 712:../../../src/radio/cc2420/source/basic_rf.c ****             FASTSPI_UPD_STATUS(spiStatusByte);
 713:../../../src/radio/cc2420/source/basic_rf.c ****         } while (!(spiStatusByte & BM(CC2420_RSSI_VALID)));
 714:../../../src/radio/cc2420/source/basic_rf.c **** 
 715:../../../src/radio/cc2420/source/basic_rf.c ****     	// TX begins after the CCA check has passed
 716:../../../src/radio/cc2420/source/basic_rf.c ****         do {
 717:../../../src/radio/cc2420/source/basic_rf.c ****     		FASTSPI_STROBE(CC2420_STXONCCA);
 718:../../../src/radio/cc2420/source/basic_rf.c ****     		FASTSPI_UPD_STATUS(spiStatusByte);
 719:../../../src/radio/cc2420/source/basic_rf.c ****     		halWait(100);
 720:../../../src/radio/cc2420/source/basic_rf.c ****         } while (!(spiStatusByte & BM(CC2420_TX_ACTIVE)));
 721:../../../src/radio/cc2420/source/basic_rf.c ****     */
 722:../../../src/radio/cc2420/source/basic_rf.c ****     FASTSPI_WRITE_FIFO((uint8_t*)&packetLength, 1);               // Packet length
 3075               	.LM499:
 3076 0b8e 4098      		cbi 40-32,0
 3077 0b90 9EE3      		ldi r25,lo8(62)
 3078 0b92 9EBD      		out 78-32,r25
 3079               	.L306:
 3081               	.LM500:
 3082 0b94 0DB4      		in __tmp_reg__,77-32
 3083 0b96 07FE      		sbrs __tmp_reg__,7
 3084 0b98 00C0      		rjmp .L306
 3085               	.LBB11:
 3087               	.LM501:
 3088 0b9a 8EBD      		out 78-32,r24
 3089               	.L307:
 3091               	.LM502:
 3092 0b9c 0DB4      		in __tmp_reg__,77-32
 3093 0b9e 07FE      		sbrs __tmp_reg__,7
 3094 0ba0 00C0      		rjmp .L307
 3095               	.LBE11:
 3097               	.LM503:
 3098 0ba2 409A      		sbi 40-32,0
 723:../../../src/radio/cc2420/source/basic_rf.c ****     frameControlField = RF_FCF_NOACK;   // default
 3100               	.LM504:
 3101 0ba4 81E4      		ldi r24,lo8(-30655)
 3102 0ba6 98E8      		ldi r25,hi8(-30655)
 3103 0ba8 9A83      		std Y+2,r25
 3104 0baa 8983      		std Y+1,r24
 724:../../../src/radio/cc2420/source/basic_rf.c ****     if(auto_ack_enable) frameControlField |= RF_ACK_BM;
 3106               	.LM505:
 3107 0bac 8091 0000 		lds r24,auto_ack_enable
 3108 0bb0 8823      		tst r24
 3109 0bb2 01F0      		breq .L308
 3111               	.LM506:
 3112 0bb4 81E6      		ldi r24,lo8(-30623)
 3113 0bb6 98E8      		ldi r25,hi8(-30623)
 3114 0bb8 9A83      		std Y+2,r25
 3115 0bba 8983      		std Y+1,r24
 3116               	.L308:
 725:../../../src/radio/cc2420/source/basic_rf.c ****     if(security_enable) frameControlField |= RF_SEC_BM;
 3118               	.LM507:
 3119 0bbc 8091 0000 		lds r24,security_enable
 3120 0bc0 8823      		tst r24
 3121 0bc2 01F0      		breq .L309
 3123               	.LM508:
 3124 0bc4 8981      		ldd r24,Y+1
 3125 0bc6 9A81      		ldd r25,Y+2
 3126 0bc8 8860      		ori r24,lo8(8)
 3127 0bca 9A83      		std Y+2,r25
 3128 0bcc 8983      		std Y+1,r24
 3129               	.L309:
 726:../../../src/radio/cc2420/source/basic_rf.c ****     FASTSPI_WRITE_FIFO((uint8_t*) &frameControlField, 2);         // Frame control field
 3131               	.LM509:
 3132 0bce 4098      		cbi 40-32,0
 3133 0bd0 8EE3      		ldi r24,lo8(62)
 3134 0bd2 8EBD      		out 78-32,r24
 3135               	.L310:
 3137               	.LM510:
 3138 0bd4 0DB4      		in __tmp_reg__,77-32
 3139 0bd6 07FE      		sbrs __tmp_reg__,7
 3140 0bd8 00C0      		rjmp .L310
 3142               	.LM511:
 3143 0bda FE01      		movw r30,r28
 3144 0bdc 3196      		adiw r30,1
 660:../../../src/radio/cc2420/source/basic_rf.c **** uint8_t rf_tx_packet(RF_TX_INFO *pRTI)
 3146               	.LM512:
 3147 0bde CE01      		movw r24,r28
 3148 0be0 0396      		adiw r24,3
 3149               	.L312:
 3150               	.LBB12:
 3152               	.LM513:
 3153 0be2 3191      		ld r19,Z+
 3154 0be4 3EBD      		out 78-32,r19
 3155               	.L311:
 3157               	.LM514:
 3158 0be6 0DB4      		in __tmp_reg__,77-32
 3159 0be8 07FE      		sbrs __tmp_reg__,7
 3160 0bea 00C0      		rjmp .L311
 3162               	.LM515:
 3163 0bec E817      		cp r30,r24
 3164 0bee F907      		cpc r31,r25
 3165 0bf0 01F4      		brne .L312
 3166               	.LBE12:
 3168               	.LM516:
 3169 0bf2 409A      		sbi 40-32,0
 727:../../../src/radio/cc2420/source/basic_rf.c ****     FASTSPI_WRITE_FIFO((uint8_t*) &rfSettings.txSeqNumber, 1);    // Sequence number
 3171               	.LM517:
 3172 0bf4 4098      		cbi 40-32,0
 3173 0bf6 8EE3      		ldi r24,lo8(62)
 3174 0bf8 8EBD      		out 78-32,r24
 3175               	.L313:
 3177               	.LM518:
 3178 0bfa 0DB4      		in __tmp_reg__,77-32
 3179 0bfc 07FE      		sbrs __tmp_reg__,7
 3180 0bfe 00C0      		rjmp .L313
 3181               	.LBB13:
 3183               	.LM519:
 3184 0c00 8091 0000 		lds r24,rfSettings+2
 3185 0c04 8EBD      		out 78-32,r24
 3186               	.L314:
 3188               	.LM520:
 3189 0c06 0DB4      		in __tmp_reg__,77-32
 3190 0c08 07FE      		sbrs __tmp_reg__,7
 3191 0c0a 00C0      		rjmp .L314
 3192               	.LBE13:
 3194               	.LM521:
 3195 0c0c 409A      		sbi 40-32,0
 728:../../../src/radio/cc2420/source/basic_rf.c ****     FASTSPI_WRITE_FIFO((uint8_t*) &rfSettings.panId, 2);          // Dest. PAN ID
 3197               	.LM522:
 3198 0c0e 4098      		cbi 40-32,0
 3199 0c10 8EE3      		ldi r24,lo8(62)
 3200 0c12 8EBD      		out 78-32,r24
 3201               	.L315:
 3203               	.LM523:
 3204 0c14 0DB4      		in __tmp_reg__,77-32
 3205 0c16 07FE      		sbrs __tmp_reg__,7
 3206 0c18 00C0      		rjmp .L315
 3208               	.LM524:
 3209 0c1a 80E0      		ldi r24,lo8(0)
 3210 0c1c 90E0      		ldi r25,hi8(0)
 3211               	.L317:
 3212               	.LBB14:
 660:../../../src/radio/cc2420/source/basic_rf.c **** uint8_t rf_tx_packet(RF_TX_INFO *pRTI)
 3214               	.LM525:
 3215 0c1e FC01      		movw r30,r24
 3216 0c20 E050      		subi r30,lo8(-(rfSettings))
 3217 0c22 F040      		sbci r31,hi8(-(rfSettings))
 3219               	.LM526:
 3220 0c24 3481      		ldd r19,Z+4
 3221 0c26 3EBD      		out 78-32,r19
 3222               	.L316:
 3224               	.LM527:
 3225 0c28 0DB4      		in __tmp_reg__,77-32
 3226 0c2a 07FE      		sbrs __tmp_reg__,7
 3227 0c2c 00C0      		rjmp .L316
 3229               	.LM528:
 3230 0c2e 0196      		adiw r24,1
 3231 0c30 8230      		cpi r24,2
 3232 0c32 9105      		cpc r25,__zero_reg__
 3233 0c34 01F4      		brne .L317
 3234               	.LBE14:
 3236               	.LM529:
 3237 0c36 409A      		sbi 40-32,0
 729:../../../src/radio/cc2420/source/basic_rf.c ****     FASTSPI_WRITE_FIFO((uint8_t*) &pRTI->destAddr, 2);            // Dest. address
 3239               	.LM530:
 3240 0c38 4098      		cbi 40-32,0
 3241 0c3a 8EE3      		ldi r24,lo8(62)
 3242 0c3c 8EBD      		out 78-32,r24
 3243               	.L318:
 3245               	.LM531:
 3246 0c3e 0DB4      		in __tmp_reg__,77-32
 3247 0c40 07FE      		sbrs __tmp_reg__,7
 3248 0c42 00C0      		rjmp .L318
 3250               	.LM532:
 3251 0c44 80E0      		ldi r24,lo8(0)
 3252 0c46 90E0      		ldi r25,hi8(0)
 3253               	.L320:
 3254               	.LBB15:
 3255 0c48 F801      		movw r30,r16
 3256 0c4a E80F      		add r30,r24
 3257 0c4c F91F      		adc r31,r25
 3258 0c4e 3081      		ld r19,Z
 3259 0c50 3EBD      		out 78-32,r19
 3260               	.L319:
 3262               	.LM533:
 3263 0c52 0DB4      		in __tmp_reg__,77-32
 3264 0c54 07FE      		sbrs __tmp_reg__,7
 3265 0c56 00C0      		rjmp .L319
 3267               	.LM534:
 3268 0c58 0196      		adiw r24,1
 3269 0c5a 8230      		cpi r24,2
 3270 0c5c 9105      		cpc r25,__zero_reg__
 3271 0c5e 01F4      		brne .L320
 3272               	.LBE15:
 3274               	.LM535:
 3275 0c60 409A      		sbi 40-32,0
 730:../../../src/radio/cc2420/source/basic_rf.c ****     FASTSPI_WRITE_FIFO((uint8_t*) &rfSettings.myAddr, 2);         // Source address
 3277               	.LM536:
 3278 0c62 4098      		cbi 40-32,0
 3279 0c64 8EE3      		ldi r24,lo8(62)
 3280 0c66 8EBD      		out 78-32,r24
 3281               	.L321:
 3283               	.LM537:
 3284 0c68 0DB4      		in __tmp_reg__,77-32
 3285 0c6a 07FE      		sbrs __tmp_reg__,7
 3286 0c6c 00C0      		rjmp .L321
 3288               	.LM538:
 3289 0c6e 80E0      		ldi r24,lo8(0)
 3290 0c70 90E0      		ldi r25,hi8(0)
 3291               	.L323:
 3292               	.LBB16:
 660:../../../src/radio/cc2420/source/basic_rf.c **** uint8_t rf_tx_packet(RF_TX_INFO *pRTI)
 3294               	.LM539:
 3295 0c72 FC01      		movw r30,r24
 3296 0c74 E050      		subi r30,lo8(-(rfSettings))
 3297 0c76 F040      		sbci r31,hi8(-(rfSettings))
 3299               	.LM540:
 3300 0c78 3681      		ldd r19,Z+6
 3301 0c7a 3EBD      		out 78-32,r19
 3302               	.L322:
 3304               	.LM541:
 3305 0c7c 0DB4      		in __tmp_reg__,77-32
 3306 0c7e 07FE      		sbrs __tmp_reg__,7
 3307 0c80 00C0      		rjmp .L322
 3309               	.LM542:
 3310 0c82 0196      		adiw r24,1
 3311 0c84 8230      		cpi r24,2
 3312 0c86 9105      		cpc r25,__zero_reg__
 3313 0c88 01F4      		brne .L323
 3314               	.LBE16:
 3316               	.LM543:
 3317 0c8a 409A      		sbi 40-32,0
 731:../../../src/radio/cc2420/source/basic_rf.c ****     if(security_enable)
 3319               	.LM544:
 3320 0c8c 8091 0000 		lds r24,security_enable
 3321 0c90 8823      		tst r24
 3322 0c92 01F0      		breq .L324
 732:../../../src/radio/cc2420/source/basic_rf.c ****         FASTSPI_WRITE_FIFO((uint8_t*) &tx_ctr, 4);         // CTR counter
 3324               	.LM545:
 3325 0c94 4098      		cbi 40-32,0
 3326 0c96 8EE3      		ldi r24,lo8(62)
 3327 0c98 8EBD      		out 78-32,r24
 3328               	.L325:
 3330               	.LM546:
 3331 0c9a 0DB4      		in __tmp_reg__,77-32
 3332 0c9c 07FE      		sbrs __tmp_reg__,7
 3333 0c9e 00C0      		rjmp .L325
 3335               	.LM547:
 3336 0ca0 E0E0      		ldi r30,lo8(tx_ctr)
 3337 0ca2 F0E0      		ldi r31,hi8(tx_ctr)
 3338               	.L327:
 3339               	.LBB17:
 3341               	.LM548:
 3342 0ca4 8191      		ld r24,Z+
 3343 0ca6 8EBD      		out 78-32,r24
 3344               	.L326:
 3346               	.LM549:
 3347 0ca8 0DB4      		in __tmp_reg__,77-32
 3348 0caa 07FE      		sbrs __tmp_reg__,7
 3349 0cac 00C0      		rjmp .L326
 3351               	.LM550:
 3352 0cae B0E0      		ldi r27,hi8(tx_ctr+4)
 3353 0cb0 E030      		cpi r30,lo8(tx_ctr+4)
 3354 0cb2 FB07      		cpc r31,r27
 3355 0cb4 01F4      		brne .L327
 3356               	.LBE17:
 3358               	.LM551:
 3359 0cb6 409A      		sbi 40-32,0
 3360               	.L324:
 733:../../../src/radio/cc2420/source/basic_rf.c **** 
 734:../../../src/radio/cc2420/source/basic_rf.c ****     FASTSPI_WRITE_FIFO((uint8_t*) pRTI->pPayload, pRTI->length);  // Payload
 3362               	.LM552:
 3363 0cb8 4098      		cbi 40-32,0
 3364 0cba 8EE3      		ldi r24,lo8(62)
 3365 0cbc 8EBD      		out 78-32,r24
 3366               	.L328:
 3368               	.LM553:
 3369 0cbe 0DB4      		in __tmp_reg__,77-32
 3370 0cc0 07FE      		sbrs __tmp_reg__,7
 3371 0cc2 00C0      		rjmp .L328
 3373               	.LM554:
 3374 0cc4 30E0      		ldi r19,lo8(0)
 3375 0cc6 00C0      		rjmp .L329
 3376               	.L331:
 3377               	.LBB18:
 3379               	.LM555:
 3380 0cc8 D801      		movw r26,r16
 3381 0cca 1396      		adiw r26,3
 3382 0ccc ED91      		ld r30,X+
 3383 0cce FC91      		ld r31,X
 3384 0cd0 1497      		sbiw r26,3+1
 3385 0cd2 E80F      		add r30,r24
 3386 0cd4 F91F      		adc r31,r25
 3387 0cd6 8081      		ld r24,Z
 3388 0cd8 8EBD      		out 78-32,r24
 3389               	.L330:
 3391               	.LM556:
 3392 0cda 0DB4      		in __tmp_reg__,77-32
 3393 0cdc 07FE      		sbrs __tmp_reg__,7
 3394 0cde 00C0      		rjmp .L330
 3396               	.LM557:
 3397 0ce0 3F5F      		subi r19,lo8(-(1))
 3398               	.L329:
 3400               	.LM558:
 3401 0ce2 832F      		mov r24,r19
 3402 0ce4 90E0      		ldi r25,lo8(0)
 3403 0ce6 F801      		movw r30,r16
 3404 0ce8 4281      		ldd r20,Z+2
 3405 0cea 5527      		clr r21
 3406 0cec 47FD      		sbrc r20,7
 3407 0cee 5095      		com r21
 3408 0cf0 8417      		cp r24,r20
 3409 0cf2 9507      		cpc r25,r21
 3410 0cf4 04F0      		brlt .L331
 3411               	.LBE18:
 3413               	.LM559:
 3414 0cf6 409A      		sbi 40-32,0
 735:../../../src/radio/cc2420/source/basic_rf.c ****     FASTSPI_WRITE_FIFO((uint8_t*) &checksum, 1);         // Checksum
 3416               	.LM560:
 3417 0cf8 4098      		cbi 40-32,0
 3418 0cfa 8EE3      		ldi r24,lo8(62)
 3419 0cfc 8EBD      		out 78-32,r24
 3420               	.L332:
 3422               	.LM561:
 3423 0cfe 0DB4      		in __tmp_reg__,77-32
 3424 0d00 07FE      		sbrs __tmp_reg__,7
 3425 0d02 00C0      		rjmp .L332
 3426               	.LBB19:
 3428               	.LM562:
 3429 0d04 2EBD      		out 78-32,r18
 3430               	.L333:
 3432               	.LM563:
 3433 0d06 0DB4      		in __tmp_reg__,77-32
 3434 0d08 07FE      		sbrs __tmp_reg__,7
 3435 0d0a 00C0      		rjmp .L333
 3436               	.LBE19:
 3438               	.LM564:
 3439 0d0c 409A      		sbi 40-32,0
 736:../../../src/radio/cc2420/source/basic_rf.c **** 
 737:../../../src/radio/cc2420/source/basic_rf.c ****     if (pRTI->cca == TRUE)
 3441               	.LM565:
 3442 0d0e D801      		movw r26,r16
 3443 0d10 1596      		adiw r26,5
 3444 0d12 8C91      		ld r24,X
 3445 0d14 1597      		sbiw r26,5
 3446 0d16 8823      		tst r24
 3447 0d18 01F0      		breq .L334
 3448               	.LBB20:
 738:../../../src/radio/cc2420/source/basic_rf.c ****     {
 739:../../../src/radio/cc2420/source/basic_rf.c ****         uint8_t cnt;
 740:../../../src/radio/cc2420/source/basic_rf.c ****         if (!rfSettings.receiveOn)
 3450               	.LM566:
 3451 0d1a 8091 0000 		lds r24,rfSettings+8
 3452 0d1e 8823      		tst r24
 3453 0d20 01F4      		brne .L358
 741:../../../src/radio/cc2420/source/basic_rf.c ****         {
 742:../../../src/radio/cc2420/source/basic_rf.c ****             FASTSPI_STROBE (CC2420_SRXON);
 3455               	.LM567:
 3456 0d22 4098      		cbi 40-32,0
 3457 0d24 83E0      		ldi r24,lo8(3)
 3458 0d26 8EBD      		out 78-32,r24
 3459               	.L336:
 3461               	.LM568:
 3462 0d28 0DB4      		in __tmp_reg__,77-32
 3463 0d2a 07FE      		sbrs __tmp_reg__,7
 3464 0d2c 00C0      		rjmp .L336
 3466               	.LM569:
 3467 0d2e 409A      		sbi 40-32,0
 3468               	.L358:
 743:../../../src/radio/cc2420/source/basic_rf.c ****         }
 744:../../../src/radio/cc2420/source/basic_rf.c **** 
 745:../../../src/radio/cc2420/source/basic_rf.c ****         // Wait for the RSSI value to become valid
 746:../../../src/radio/cc2420/source/basic_rf.c ****         do
 747:../../../src/radio/cc2420/source/basic_rf.c ****         {
 748:../../../src/radio/cc2420/source/basic_rf.c ****             FASTSPI_UPD_STATUS (spiStatusByte);
 3470               	.LM570:
 3471 0d30 4098      		cbi 40-32,0
 3472 0d32 1EBC      		out 78-32,__zero_reg__
 3473               	.L337:
 3475               	.LM571:
 3476 0d34 0DB4      		in __tmp_reg__,77-32
 3477 0d36 07FE      		sbrs __tmp_reg__,7
 3478 0d38 00C0      		rjmp .L337
 3480               	.LM572:
 3481 0d3a 8EB5      		in r24,78-32
 3482 0d3c 409A      		sbi 40-32,0
 749:../../../src/radio/cc2420/source/basic_rf.c ****         }
 750:../../../src/radio/cc2420/source/basic_rf.c ****         while (!(spiStatusByte & BM (CC2420_RSSI_VALID)));
 3484               	.LM573:
 3485 0d3e 81FF      		sbrs r24,1
 3486 0d40 00C0      		rjmp .L358
 3488               	.LM574:
 3489 0d42 00E0      		ldi r16,lo8(0)
 751:../../../src/radio/cc2420/source/basic_rf.c ****         // TX begins after the CCA check has passed
 752:../../../src/radio/cc2420/source/basic_rf.c ****         cnt = 0;
 753:../../../src/radio/cc2420/source/basic_rf.c ****         do
 754:../../../src/radio/cc2420/source/basic_rf.c ****         {
 755:../../../src/radio/cc2420/source/basic_rf.c ****             FASTSPI_STROBE (CC2420_STXONCCA);
 3491               	.LM575:
 3492 0d44 15E0      		ldi r17,lo8(5)
 3493               	.L343:
 3494 0d46 4098      		cbi 40-32,0
 3495 0d48 1EBD      		out 78-32,r17
 3496               	.L339:
 3498               	.LM576:
 3499 0d4a 0DB4      		in __tmp_reg__,77-32
 3500 0d4c 07FE      		sbrs __tmp_reg__,7
 3501 0d4e 00C0      		rjmp .L339
 3503               	.LM577:
 3504 0d50 409A      		sbi 40-32,0
 756:../../../src/radio/cc2420/source/basic_rf.c ****             FASTSPI_UPD_STATUS (spiStatusByte);
 3506               	.LM578:
 3507 0d52 4098      		cbi 40-32,0
 3508 0d54 1EBC      		out 78-32,__zero_reg__
 3509               	.L340:
 3511               	.LM579:
 3512 0d56 0DB4      		in __tmp_reg__,77-32
 3513 0d58 07FE      		sbrs __tmp_reg__,7
 3514 0d5a 00C0      		rjmp .L340
 3516               	.LM580:
 3517 0d5c FEB4      		in r15,78-32
 3518 0d5e 409A      		sbi 40-32,0
 757:../../../src/radio/cc2420/source/basic_rf.c ****             cnt++;
 3520               	.LM581:
 3521 0d60 0F5F      		subi r16,lo8(-(1))
 758:../../../src/radio/cc2420/source/basic_rf.c ****             if (cnt > 100)
 3523               	.LM582:
 3524 0d62 0536      		cpi r16,lo8(101)
 3525 0d64 01F4      		brne .L341
 759:../../../src/radio/cc2420/source/basic_rf.c ****             {
 760:../../../src/radio/cc2420/source/basic_rf.c ****                 ENABLE_GLOBAL_INT ();
 3527               	.LM583:
 3528               	/* #APP */
 3529               	 ;  760 "../../../src/radio/cc2420/source/basic_rf.c" 1
 3530 0d66 7894      		sei
 3531               		
 3532               	 ;  0 "" 2
 761:../../../src/radio/cc2420/source/basic_rf.c ****                 nrk_sem_post(radio_sem);
 3534               	.LM584:
 3535               	/* #NOAPP */
 3536 0d68 8091 0000 		lds r24,radio_sem
 3537 0d6c 9091 0000 		lds r25,radio_sem+1
 3538 0d70 0E94 0000 		call nrk_sem_post
 762:../../../src/radio/cc2420/source/basic_rf.c ****                 return FALSE;
 3540               	.LM585:
 3541 0d74 00E0      		ldi r16,lo8(0)
 3542 0d76 00C0      		rjmp .L342
 3543               	.L341:
 763:../../../src/radio/cc2420/source/basic_rf.c ****             }
 764:../../../src/radio/cc2420/source/basic_rf.c ****             halWait (100);
 3545               	.LM586:
 3546 0d78 84E6      		ldi r24,lo8(100)
 3547 0d7a 90E0      		ldi r25,hi8(100)
 3548 0d7c 0E94 0000 		call halWait
 765:../../../src/radio/cc2420/source/basic_rf.c ****         }
 766:../../../src/radio/cc2420/source/basic_rf.c ****         while (!(spiStatusByte & BM (CC2420_TX_ACTIVE)));
 3550               	.LM587:
 3551 0d80 F3FE      		sbrs r15,3
 3552 0d82 00C0      		rjmp .L343
 3553 0d84 00C0      		rjmp .L344
 3554               	.L334:
 3555               	.LBE20:
 767:../../../src/radio/cc2420/source/basic_rf.c ****     }
 768:../../../src/radio/cc2420/source/basic_rf.c ****     else
 769:../../../src/radio/cc2420/source/basic_rf.c ****         FASTSPI_STROBE (CC2420_STXON);
 3557               	.LM588:
 3558 0d86 4098      		cbi 40-32,0
 3559 0d88 84E0      		ldi r24,lo8(4)
 3560 0d8a 8EBD      		out 78-32,r24
 3561               	.L345:
 3563               	.LM589:
 3564 0d8c 0DB4      		in __tmp_reg__,77-32
 3565 0d8e 07FE      		sbrs __tmp_reg__,7
 3566 0d90 00C0      		rjmp .L345
 3568               	.LM590:
 3569 0d92 409A      		sbi 40-32,0
 3570               	.L344:
 770:../../../src/radio/cc2420/source/basic_rf.c **** 
 771:../../../src/radio/cc2420/source/basic_rf.c ****     ENABLE_GLOBAL_INT();
 3572               	.LM591:
 3573               	/* #APP */
 3574               	 ;  771 "../../../src/radio/cc2420/source/basic_rf.c" 1
 3575 0d94 7894      		sei
 3576               		
 3577               	 ;  0 "" 2
 3578               	/* #NOAPP */
 3579               	.L346:
 772:../../../src/radio/cc2420/source/basic_rf.c ****     // Wait for the transmission to begin before exiting (makes sure that this function cannot be c
 773:../../../src/radio/cc2420/source/basic_rf.c ****     // a second time, and thereby cancelling the first transmission (observe the FIFOP + SFD test a
 774:../../../src/radio/cc2420/source/basic_rf.c ****     while (!SFD_IS_1);
 3581               	.LM592:
 3582 0d96 4E9B      		sbis 41-32,6
 3583 0d98 00C0      		rjmp .L346
 3584               	.L357:
 775:../../../src/radio/cc2420/source/basic_rf.c ****     success = TRUE;
 776:../../../src/radio/cc2420/source/basic_rf.c **** 
 777:../../../src/radio/cc2420/source/basic_rf.c ****     // Turn interrupts back on
 778:../../../src/radio/cc2420/source/basic_rf.c **** //	ENABLE_GLOBAL_INT();
 779:../../../src/radio/cc2420/source/basic_rf.c **** 
 780:../../../src/radio/cc2420/source/basic_rf.c ****     while (SFD_IS_1); // wait for packet to finish
 3586               	.LM593:
 3587 0d9a 4E99      		sbic 41-32,6
 3588 0d9c 00C0      		rjmp .L357
 781:../../../src/radio/cc2420/source/basic_rf.c **** 
 782:../../../src/radio/cc2420/source/basic_rf.c ****     // Wait for the acknowledge to be received, if any
 783:../../../src/radio/cc2420/source/basic_rf.c ****     if (auto_ack_enable)
 3590               	.LM594:
 3591 0d9e 8091 0000 		lds r24,auto_ack_enable
 3592 0da2 8823      		tst r24
 3593 0da4 01F0      		breq .L355
 784:../../../src/radio/cc2420/source/basic_rf.c ****     {
 785:../../../src/radio/cc2420/source/basic_rf.c **** //		rfSettings.ackReceived = FALSE;
 786:../../../src/radio/cc2420/source/basic_rf.c **** 
 787:../../../src/radio/cc2420/source/basic_rf.c ****         // Wait for the SFD to go low again
 788:../../../src/radio/cc2420/source/basic_rf.c ****         //	while (SFD_IS_1);
 789:../../../src/radio/cc2420/source/basic_rf.c ****         // We'll enter RX automatically, so just wait until we can be sure that the
 790:../../../src/radio/cc2420/source/basic_rf.c ****         // ack reception should have finished
 791:../../../src/radio/cc2420/source/basic_rf.c ****         // The timeout consists of a 12-symbol turnaround time, the ack packet duration,
 792:../../../src/radio/cc2420/source/basic_rf.c ****         // and a small margin
 793:../../../src/radio/cc2420/source/basic_rf.c ****         halWait((12 * RF_SYMBOL_DURATION) + (RF_ACK_DURATION) + (2 * RF_SYMBOL_DURATION) + 100);
 3595               	.LM595:
 3596 0da6 84EA      		ldi r24,lo8(676)
 3597 0da8 92E0      		ldi r25,hi8(676)
 3598 0daa 0E94 0000 		call halWait
 794:../../../src/radio/cc2420/source/basic_rf.c **** 
 795:../../../src/radio/cc2420/source/basic_rf.c ****         if(FIFO_IS_1)
 3600               	.LM596:
 3601 0dae 319B      		sbis 38-32,1
 3602 0db0 00C0      		rjmp .L349
 796:../../../src/radio/cc2420/source/basic_rf.c ****         {
 797:../../../src/radio/cc2420/source/basic_rf.c ****             FASTSPI_READ_FIFO_BYTE(length);
 3604               	.LM597:
 3605 0db2 4098      		cbi 40-32,0
 3606 0db4 8FE7      		ldi r24,lo8(127)
 3607 0db6 8EBD      		out 78-32,r24
 3608               	.L350:
 3610               	.LM598:
 3611 0db8 0DB4      		in __tmp_reg__,77-32
 3612 0dba 07FE      		sbrs __tmp_reg__,7
 3613 0dbc 00C0      		rjmp .L350
 3615               	.LM599:
 3616 0dbe 1EBC      		out 78-32,__zero_reg__
 3617               	.L351:
 3619               	.LM600:
 3620 0dc0 0DB4      		in __tmp_reg__,77-32
 3621 0dc2 07FE      		sbrs __tmp_reg__,7
 3622 0dc4 00C0      		rjmp .L351
 3624               	.LM601:
 3625 0dc6 8EB5      		in r24,78-32
 3626 0dc8 409A      		sbi 40-32,0
 3627 0dca 00C0      		rjmp .L355
 3628               	.L349:
 798:../../../src/radio/cc2420/source/basic_rf.c ****             length &= RF_LENGTH_MASK; // Ignore MSB
 799:../../../src/radio/cc2420/source/basic_rf.c ****             success = TRUE;
 800:../../../src/radio/cc2420/source/basic_rf.c **** 
 801:../../../src/radio/cc2420/source/basic_rf.c ****         }
 802:../../../src/radio/cc2420/source/basic_rf.c ****         else
 803:../../../src/radio/cc2420/source/basic_rf.c ****         {
 804:../../../src/radio/cc2420/source/basic_rf.c ****             FASTSPI_STROBE(CC2420_SFLUSHRX);
 3630               	.LM602:
 3631 0dcc 4098      		cbi 40-32,0
 3632 0dce 88E0      		ldi r24,lo8(8)
 3633 0dd0 8EBD      		out 78-32,r24
 3634               	.L352:
 3636               	.LM603:
 3637 0dd2 0DB4      		in __tmp_reg__,77-32
 3638 0dd4 07FE      		sbrs __tmp_reg__,7
 3639 0dd6 00C0      		rjmp .L352
 3641               	.LM604:
 3642 0dd8 409A      		sbi 40-32,0
 805:../../../src/radio/cc2420/source/basic_rf.c ****             FASTSPI_STROBE(CC2420_SFLUSHRX);
 3644               	.LM605:
 3645 0dda 4098      		cbi 40-32,0
 3646 0ddc 88E0      		ldi r24,lo8(8)
 3647 0dde 8EBD      		out 78-32,r24
 3648               	.L353:
 3650               	.LM606:
 3651 0de0 0DB4      		in __tmp_reg__,77-32
 3652 0de2 07FE      		sbrs __tmp_reg__,7
 3653 0de4 00C0      		rjmp .L353
 3655               	.LM607:
 3656 0de6 409A      		sbi 40-32,0
 806:../../../src/radio/cc2420/source/basic_rf.c ****             success = FALSE;
 3658               	.LM608:
 3659 0de8 00E0      		ldi r16,lo8(0)
 3660 0dea 00C0      		rjmp .L348
 3661               	.L355:
 775:../../../src/radio/cc2420/source/basic_rf.c ****     success = TRUE;
 3663               	.LM609:
 3664 0dec 01E0      		ldi r16,lo8(1)
 3665               	.L348:
 807:../../../src/radio/cc2420/source/basic_rf.c ****         }
 808:../../../src/radio/cc2420/source/basic_rf.c **** 
 809:../../../src/radio/cc2420/source/basic_rf.c ****     }
 810:../../../src/radio/cc2420/source/basic_rf.c **** 
 811:../../../src/radio/cc2420/source/basic_rf.c **** 
 812:../../../src/radio/cc2420/source/basic_rf.c ****     // Turn off the receiver if it should not continue to be enabled
 813:../../../src/radio/cc2420/source/basic_rf.c **** 
 814:../../../src/radio/cc2420/source/basic_rf.c ****     DISABLE_GLOBAL_INT();
 3667               	.LM610:
 3668               	/* #APP */
 3669               	 ;  814 "../../../src/radio/cc2420/source/basic_rf.c" 1
 3670 0dee F894      		cli
 3671               		
 3672               	 ;  0 "" 2
 815:../../../src/radio/cc2420/source/basic_rf.c ****     //FASTSPI_STROBE(CC2420_SFLUSHRX);
 816:../../../src/radio/cc2420/source/basic_rf.c ****     //FASTSPI_STROBE(CC2420_SFLUSHRX);
 817:../../../src/radio/cc2420/source/basic_rf.c ****     //FASTSPI_STROBE(CC2420_SFLUSHTX);
 818:../../../src/radio/cc2420/source/basic_rf.c ****     //FASTSPI_STROBE(CC2420_SFLUSHTX);
 819:../../../src/radio/cc2420/source/basic_rf.c **** 
 820:../../../src/radio/cc2420/source/basic_rf.c **** #ifdef CC2420_OSC_OPT
 821:../../../src/radio/cc2420/source/basic_rf.c ****     FASTSPI_STROBE(CC2420_SXOSCOFF);
 822:../../../src/radio/cc2420/source/basic_rf.c **** #endif
 823:../../../src/radio/cc2420/source/basic_rf.c ****     FASTSPI_STROBE(CC2420_SRFOFF);  // shut off radio
 3674               	.LM611:
 3675               	/* #NOAPP */
 3676 0df0 4098      		cbi 40-32,0
 3677 0df2 86E0      		ldi r24,lo8(6)
 3678 0df4 8EBD      		out 78-32,r24
 3679               	.L354:
 3681               	.LM612:
 3682 0df6 0DB4      		in __tmp_reg__,77-32
 3683 0df8 07FE      		sbrs __tmp_reg__,7
 3684 0dfa 00C0      		rjmp .L354
 3686               	.LM613:
 3687 0dfc 409A      		sbi 40-32,0
 824:../../../src/radio/cc2420/source/basic_rf.c ****     ENABLE_GLOBAL_INT();
 3689               	.LM614:
 3690               	/* #APP */
 3691               	 ;  824 "../../../src/radio/cc2420/source/basic_rf.c" 1
 3692 0dfe 7894      		sei
 3693               		
 3694               	 ;  0 "" 2
 825:../../../src/radio/cc2420/source/basic_rf.c **** 
 826:../../../src/radio/cc2420/source/basic_rf.c ****     // agr XXX hack to test time issue
 827:../../../src/radio/cc2420/source/basic_rf.c ****     //rf_rx_on();
 828:../../../src/radio/cc2420/source/basic_rf.c **** 
 829:../../../src/radio/cc2420/source/basic_rf.c ****     // Increment the sequence number, and return the result
 830:../../../src/radio/cc2420/source/basic_rf.c ****     rfSettings.txSeqNumber++;
 3696               	.LM615:
 3697               	/* #NOAPP */
 3698 0e00 8091 0000 		lds r24,rfSettings+2
 3699 0e04 8F5F      		subi r24,lo8(-(1))
 3700 0e06 8093 0000 		sts rfSettings+2,r24
 831:../../../src/radio/cc2420/source/basic_rf.c **** //	while (SFD_IS_1);
 832:../../../src/radio/cc2420/source/basic_rf.c **** #ifdef RADIO_PRIORITY_CEILING
 833:../../../src/radio/cc2420/source/basic_rf.c ****     nrk_sem_post(radio_sem);
 3702               	.LM616:
 3703 0e0a 8091 0000 		lds r24,radio_sem
 3704 0e0e 9091 0000 		lds r25,radio_sem+1
 3705 0e12 0E94 0000 		call nrk_sem_post
 3706               	.L342:
 834:../../../src/radio/cc2420/source/basic_rf.c **** #endif
 835:../../../src/radio/cc2420/source/basic_rf.c ****     return success;
 836:../../../src/radio/cc2420/source/basic_rf.c **** 
 837:../../../src/radio/cc2420/source/basic_rf.c **** }
 3708               	.LM617:
 3709 0e16 802F      		mov r24,r16
 3710               	/* epilogue start */
 3711 0e18 0F90      		pop __tmp_reg__
 3712 0e1a 0F90      		pop __tmp_reg__
 3713 0e1c CF91      		pop r28
 3714 0e1e DF91      		pop r29
 3715 0e20 1F91      		pop r17
 3716 0e22 0F91      		pop r16
 3717 0e24 FF90      		pop r15
 3718 0e26 0895      		ret
 3734               	.Lscope24:
 3736               		.stabd	78,0,0
 3738               	.global	rf_busy
 3740               	rf_busy:
 3741               		.stabd	46,0,0
 838:../../../src/radio/cc2420/source/basic_rf.c **** 
 839:../../../src/radio/cc2420/source/basic_rf.c **** uint8_t rf_busy()
 840:../../../src/radio/cc2420/source/basic_rf.c **** {
 3743               	.LM618:
 3744               	.LFBB25:
 3745               	/* prologue: function */
 3746               	/* frame size = 0 */
 3747               	/* stack size = 0 */
 3748               	.L__stack_usage = 0
 841:../../../src/radio/cc2420/source/basic_rf.c ****     return SFD_IS_1;
 3750               	.LM619:
 3751 0e28 81E0      		ldi r24,lo8(1)
 3752 0e2a 4E9B      		sbis 41-32,6
 3753 0e2c 80E0      		ldi r24,lo8(0)
 3754               	.L404:
 842:../../../src/radio/cc2420/source/basic_rf.c **** }
 3756               	.LM620:
 3757 0e2e 0895      		ret
 3759               	.Lscope25:
 3761               		.stabd	78,0,0
 3763               	.global	rf_rx_check_fifop
 3765               	rf_rx_check_fifop:
 3766               		.stabd	46,0,0
 843:../../../src/radio/cc2420/source/basic_rf.c **** 
 844:../../../src/radio/cc2420/source/basic_rf.c **** uint8_t rf_rx_check_fifop()
 845:../../../src/radio/cc2420/source/basic_rf.c **** {
 3768               	.LM621:
 3769               	.LFBB26:
 3770               	/* prologue: function */
 3771               	/* frame size = 0 */
 3772               	/* stack size = 0 */
 3773               	.L__stack_usage = 0
 846:../../../src/radio/cc2420/source/basic_rf.c ****     return FIFOP_IS_1;
 3775               	.LM622:
 3776 0e30 8CB1      		in r24,44-32
 847:../../../src/radio/cc2420/source/basic_rf.c **** }
 3778               	.LM623:
 3779 0e32 881F      		rol r24
 3780 0e34 8827      		clr r24
 3781 0e36 881F      		rol r24
 3782               	/* epilogue start */
 3783 0e38 0895      		ret
 3785               	.Lscope26:
 3787               		.stabd	78,0,0
 3789               	.global	rf_rx_check_sfd
 3791               	rf_rx_check_sfd:
 3792               		.stabd	46,0,0
 848:../../../src/radio/cc2420/source/basic_rf.c **** 
 849:../../../src/radio/cc2420/source/basic_rf.c **** 
 850:../../../src/radio/cc2420/source/basic_rf.c **** uint8_t rf_rx_check_sfd()
 851:../../../src/radio/cc2420/source/basic_rf.c **** {
 3794               	.LM624:
 3795               	.LFBB27:
 3796               	/* prologue: function */
 3797               	/* frame size = 0 */
 3798               	/* stack size = 0 */
 3799               	.L__stack_usage = 0
 852:../../../src/radio/cc2420/source/basic_rf.c ****     return SFD_IS_1;
 3801               	.LM625:
 3802 0e3a 81E0      		ldi r24,lo8(1)
 3803 0e3c 4E9B      		sbis 41-32,6
 3804 0e3e 80E0      		ldi r24,lo8(0)
 3805               	.L407:
 853:../../../src/radio/cc2420/source/basic_rf.c **** }
 3807               	.LM626:
 3808 0e40 0895      		ret
 3810               	.Lscope27:
 3812               		.stabd	78,0,0
 3814               	.global	rf_polling_rx_packet
 3816               	rf_polling_rx_packet:
 3817               		.stabd	46,0,0
 854:../../../src/radio/cc2420/source/basic_rf.c **** uint16_t tmp_blah;
 855:../../../src/radio/cc2420/source/basic_rf.c **** 
 856:../../../src/radio/cc2420/source/basic_rf.c **** int8_t rf_polling_rx_packet()
 857:../../../src/radio/cc2420/source/basic_rf.c **** {
 3819               	.LM627:
 3820               	.LFBB28:
 3821 0e42 DF93      		push r29
 3822 0e44 CF93      		push r28
 3823 0e46 00D0      		rcall .
 3824 0e48 00D0      		rcall .
 3825 0e4a CDB7      		in r28,__SP_L__
 3826 0e4c DEB7      		in r29,__SP_H__
 3827               	/* prologue: function */
 3828               	/* frame size = 4 */
 3829               	/* stack size = 6 */
 3830               	.L__stack_usage = 6
 858:../../../src/radio/cc2420/source/basic_rf.c ****     uint8_t tmp;
 859:../../../src/radio/cc2420/source/basic_rf.c **** 
 860:../../../src/radio/cc2420/source/basic_rf.c **** #ifdef RADIO_PRIORITY_CEILING
 861:../../../src/radio/cc2420/source/basic_rf.c ****     nrk_sem_pend(radio_sem);
 3832               	.LM628:
 3833 0e4e 8091 0000 		lds r24,radio_sem
 3834 0e52 9091 0000 		lds r25,radio_sem+1
 3835 0e56 0E94 0000 		call nrk_sem_pend
 862:../../../src/radio/cc2420/source/basic_rf.c **** #endif
 863:../../../src/radio/cc2420/source/basic_rf.c **** 
 864:../../../src/radio/cc2420/source/basic_rf.c ****     if(FIFOP_IS_1 )
 3837               	.LM629:
 3838 0e5a 679B      		sbis 44-32,7
 3839 0e5c 00C0      		rjmp .L409
 3840               	.LBB21:
 865:../../../src/radio/cc2420/source/basic_rf.c ****     {
 866:../../../src/radio/cc2420/source/basic_rf.c ****         uint16_t frameControlField;
 867:../../../src/radio/cc2420/source/basic_rf.c ****         int8_t length;
 868:../../../src/radio/cc2420/source/basic_rf.c ****         uint8_t pFooter[2];
 869:../../../src/radio/cc2420/source/basic_rf.c ****         uint8_t checksum,rx_checksum,i;
 870:../../../src/radio/cc2420/source/basic_rf.c **** 
 871:../../../src/radio/cc2420/source/basic_rf.c ****         last_pkt_encrypted=0;
 3842               	.LM630:
 3843 0e5e 1092 0000 		sts last_pkt_encrypted,__zero_reg__
 872:../../../src/radio/cc2420/source/basic_rf.c **** 
 873:../../../src/radio/cc2420/source/basic_rf.c **** //	FASTSPI_STROBE(CC2420_SRXON);
 874:../../../src/radio/cc2420/source/basic_rf.c **** //	FASTSPI_STROBE(CC2420_SFLUSHRX);
 875:../../../src/radio/cc2420/source/basic_rf.c **** 
 876:../../../src/radio/cc2420/source/basic_rf.c **** //	while(!SFD_IS_1);
 877:../../../src/radio/cc2420/source/basic_rf.c **** //  XXX Need to make sure SFD has gone down to be sure packet finished!
 878:../../../src/radio/cc2420/source/basic_rf.c **** //	while(SFD_IS_1);
 879:../../../src/radio/cc2420/source/basic_rf.c ****         // Clean up and exit in case of FIFO overflow, which is indicated by FIFOP = 1 and FIFO = 0
 880:../../../src/radio/cc2420/source/basic_rf.c ****         if((FIFOP_IS_1) && (!(FIFO_IS_1)))
 3845               	.LM631:
 3846 0e62 679B      		sbis 44-32,7
 3847 0e64 00C0      		rjmp .L410
 3849               	.LM632:
 3850 0e66 3199      		sbic 38-32,1
 3851 0e68 00C0      		rjmp .L410
 881:../../../src/radio/cc2420/source/basic_rf.c ****         {
 882:../../../src/radio/cc2420/source/basic_rf.c ****             // always read 1 byte before flush (data sheet pg 62)
 883:../../../src/radio/cc2420/source/basic_rf.c ****             FASTSPI_READ_FIFO_BYTE(tmp);
 3853               	.LM633:
 3854 0e6a 4098      		cbi 40-32,0
 3855 0e6c 8FE7      		ldi r24,lo8(127)
 3856 0e6e 8EBD      		out 78-32,r24
 3857               	.L411:
 3859               	.LM634:
 3860 0e70 0DB4      		in __tmp_reg__,77-32
 3861 0e72 07FE      		sbrs __tmp_reg__,7
 3862 0e74 00C0      		rjmp .L411
 3864               	.LM635:
 3865 0e76 1EBC      		out 78-32,__zero_reg__
 3866               	.L412:
 3868               	.LM636:
 3869 0e78 0DB4      		in __tmp_reg__,77-32
 3870 0e7a 07FE      		sbrs __tmp_reg__,7
 3871 0e7c 00C0      		rjmp .L412
 3873               	.LM637:
 3874 0e7e 8EB5      		in r24,78-32
 3875 0e80 409A      		sbi 40-32,0
 884:../../../src/radio/cc2420/source/basic_rf.c ****             FASTSPI_STROBE(CC2420_SFLUSHRX);
 3877               	.LM638:
 3878 0e82 4098      		cbi 40-32,0
 3879 0e84 88E0      		ldi r24,lo8(8)
 3880 0e86 8EBD      		out 78-32,r24
 3881               	.L413:
 3883               	.LM639:
 3884 0e88 0DB4      		in __tmp_reg__,77-32
 3885 0e8a 07FE      		sbrs __tmp_reg__,7
 3886 0e8c 00C0      		rjmp .L413
 3888               	.LM640:
 3889 0e8e 409A      		sbi 40-32,0
 885:../../../src/radio/cc2420/source/basic_rf.c ****             FASTSPI_STROBE(CC2420_SFLUSHRX);
 3891               	.LM641:
 3892 0e90 4098      		cbi 40-32,0
 3893 0e92 88E0      		ldi r24,lo8(8)
 3894 0e94 8EBD      		out 78-32,r24
 3895               	.L414:
 3897               	.LM642:
 3898 0e96 0DB4      		in __tmp_reg__,77-32
 3899 0e98 07FE      		sbrs __tmp_reg__,7
 3900 0e9a 00C0      		rjmp .L414
 3902               	.LM643:
 3903 0e9c 409A      		sbi 40-32,0
 886:../../../src/radio/cc2420/source/basic_rf.c **** #ifdef RADIO_PRIORITY_CEILING
 887:../../../src/radio/cc2420/source/basic_rf.c ****             nrk_sem_post(radio_sem);
 3905               	.LM644:
 3906 0e9e 8091 0000 		lds r24,radio_sem
 3907 0ea2 9091 0000 		lds r25,radio_sem+1
 3908 0ea6 0E94 0000 		call nrk_sem_post
 888:../../../src/radio/cc2420/source/basic_rf.c **** #endif
 889:../../../src/radio/cc2420/source/basic_rf.c ****             return -1;
 3910               	.LM645:
 3911 0eaa 8FEF      		ldi r24,lo8(-1)
 3912 0eac 00C0      		rjmp .L415
 3913               	.L410:
 890:../../../src/radio/cc2420/source/basic_rf.c ****         }
 891:../../../src/radio/cc2420/source/basic_rf.c **** 
 892:../../../src/radio/cc2420/source/basic_rf.c ****         // Payload length
 893:../../../src/radio/cc2420/source/basic_rf.c ****         FASTSPI_READ_FIFO_BYTE(length);
 3915               	.LM646:
 3916 0eae 4098      		cbi 40-32,0
 3917 0eb0 8FE7      		ldi r24,lo8(127)
 3918 0eb2 8EBD      		out 78-32,r24
 3919               	.L416:
 3921               	.LM647:
 3922 0eb4 0DB4      		in __tmp_reg__,77-32
 3923 0eb6 07FE      		sbrs __tmp_reg__,7
 3924 0eb8 00C0      		rjmp .L416
 3926               	.LM648:
 3927 0eba 1EBC      		out 78-32,__zero_reg__
 3928               	.L417:
 3930               	.LM649:
 3931 0ebc 0DB4      		in __tmp_reg__,77-32
 3932 0ebe 07FE      		sbrs __tmp_reg__,7
 3933 0ec0 00C0      		rjmp .L417
 3935               	.LM650:
 3936 0ec2 4EB5      		in r20,78-32
 3937 0ec4 409A      		sbi 40-32,0
 894:../../../src/radio/cc2420/source/basic_rf.c ****         length &= RF_LENGTH_MASK; // Ignore MSB
 3939               	.LM651:
 3940 0ec6 4F77      		andi r20,lo8(127)
 895:../../../src/radio/cc2420/source/basic_rf.c ****         // Ignore the packet if the length is too short
 896:../../../src/radio/cc2420/source/basic_rf.c ****         if(length<=0)
 3942               	.LM652:
 3943 0ec8 01F4      		brne .L418
 897:../../../src/radio/cc2420/source/basic_rf.c ****         {
 898:../../../src/radio/cc2420/source/basic_rf.c ****             // always read 1 byte before flush (data sheet pg 62)
 899:../../../src/radio/cc2420/source/basic_rf.c ****             FASTSPI_READ_FIFO_BYTE(tmp);
 3945               	.LM653:
 3946 0eca 4098      		cbi 40-32,0
 3947 0ecc 8FE7      		ldi r24,lo8(127)
 3948 0ece 8EBD      		out 78-32,r24
 3949               	.L419:
 3951               	.LM654:
 3952 0ed0 0DB4      		in __tmp_reg__,77-32
 3953 0ed2 07FE      		sbrs __tmp_reg__,7
 3954 0ed4 00C0      		rjmp .L419
 3956               	.LM655:
 3957 0ed6 1EBC      		out 78-32,__zero_reg__
 3958               	.L420:
 3960               	.LM656:
 3961 0ed8 0DB4      		in __tmp_reg__,77-32
 3962 0eda 07FE      		sbrs __tmp_reg__,7
 3963 0edc 00C0      		rjmp .L420
 3965               	.LM657:
 3966 0ede 8EB5      		in r24,78-32
 3967 0ee0 409A      		sbi 40-32,0
 900:../../../src/radio/cc2420/source/basic_rf.c ****             FASTSPI_STROBE(CC2420_SFLUSHRX);
 3969               	.LM658:
 3970 0ee2 4098      		cbi 40-32,0
 3971 0ee4 88E0      		ldi r24,lo8(8)
 3972 0ee6 8EBD      		out 78-32,r24
 3973               	.L421:
 3975               	.LM659:
 3976 0ee8 0DB4      		in __tmp_reg__,77-32
 3977 0eea 07FE      		sbrs __tmp_reg__,7
 3978 0eec 00C0      		rjmp .L421
 3980               	.LM660:
 3981 0eee 409A      		sbi 40-32,0
 901:../../../src/radio/cc2420/source/basic_rf.c ****             FASTSPI_STROBE(CC2420_SFLUSHRX);
 3983               	.LM661:
 3984 0ef0 4098      		cbi 40-32,0
 3985 0ef2 88E0      		ldi r24,lo8(8)
 3986 0ef4 8EBD      		out 78-32,r24
 3987               	.L422:
 3989               	.LM662:
 3990 0ef6 0DB4      		in __tmp_reg__,77-32
 3991 0ef8 07FE      		sbrs __tmp_reg__,7
 3992 0efa 00C0      		rjmp .L422
 3994               	.LM663:
 3995 0efc 409A      		sbi 40-32,0
 902:../../../src/radio/cc2420/source/basic_rf.c **** #ifdef RADIO_PRIORITY_CEILING
 903:../../../src/radio/cc2420/source/basic_rf.c ****             nrk_sem_post(radio_sem);
 3997               	.LM664:
 3998 0efe 8091 0000 		lds r24,radio_sem
 3999 0f02 9091 0000 		lds r25,radio_sem+1
 4000 0f06 0E94 0000 		call nrk_sem_post
 904:../../../src/radio/cc2420/source/basic_rf.c **** #endif
 905:../../../src/radio/cc2420/source/basic_rf.c ****             return -2;
 4002               	.LM665:
 4003 0f0a 8EEF      		ldi r24,lo8(-2)
 4004 0f0c 00C0      		rjmp .L415
 4005               	.L418:
 906:../../../src/radio/cc2420/source/basic_rf.c ****         }
 907:../../../src/radio/cc2420/source/basic_rf.c ****         if (length < (RF_PACKET_OVERHEAD_SIZE + CHECKSUM_OVERHEAD)/*RF_ACK_PACKET_SIZE*/ || (length
 4007               	.LM666:
 4008 0f0e 4C30      		cpi r20,lo8(12)
 4009 0f10 04F0      		brlt .L423
 4011               	.LM667:
 4012 0f12 E091 0000 		lds r30,rfSettings
 4013 0f16 F091 0000 		lds r31,rfSettings+1
 4014 0f1a 842F      		mov r24,r20
 4015 0f1c 9927      		clr r25
 4016 0f1e 87FD      		sbrc r24,7
 4017 0f20 9095      		com r25
 4018 0f22 0B97      		sbiw r24,11
 4019 0f24 2481      		ldd r18,Z+4
 4020 0f26 3327      		clr r19
 4021 0f28 27FD      		sbrc r18,7
 4022 0f2a 3095      		com r19
 4023 0f2c 2817      		cp r18,r24
 4024 0f2e 3907      		cpc r19,r25
 4025 0f30 04F4      		brge .L424
 4026               	.L423:
 908:../../../src/radio/cc2420/source/basic_rf.c ****         {
 909:../../../src/radio/cc2420/source/basic_rf.c ****             FASTSPI_READ_FIFO_GARBAGE(length);
 4028               	.LM668:
 4029 0f32 4098      		cbi 40-32,0
 4030 0f34 8FE7      		ldi r24,lo8(127)
 4031 0f36 8EBD      		out 78-32,r24
 4032               	.L425:
 4034               	.LM669:
 4035 0f38 0DB4      		in __tmp_reg__,77-32
 4036 0f3a 07FE      		sbrs __tmp_reg__,7
 4037 0f3c 00C0      		rjmp .L425
 4039               	.LM670:
 4040 0f3e 50E0      		ldi r21,lo8(0)
 4041               	.LBB22:
 4042 0f40 842F      		mov r24,r20
 4043 0f42 9927      		clr r25
 4044 0f44 87FD      		sbrc r24,7
 4045 0f46 9095      		com r25
 4046 0f48 00C0      		rjmp .L426
 4047               	.L429:
 4049               	.LM671:
 4050 0f4a 1EBC      		out 78-32,__zero_reg__
 4051               	.L427:
 4053               	.LM672:
 4054 0f4c 0DB4      		in __tmp_reg__,77-32
 4055 0f4e 07FE      		sbrs __tmp_reg__,7
 4056 0f50 00C0      		rjmp .L427
 4058               	.LM673:
 4059 0f52 5F5F      		subi r21,lo8(-(1))
 4060               	.L426:
 4062               	.LM674:
 4063 0f54 252F      		mov r18,r21
 4064 0f56 30E0      		ldi r19,lo8(0)
 4065 0f58 2817      		cp r18,r24
 4066 0f5a 3907      		cpc r19,r25
 4067 0f5c 04F4      		brge .L428
 4069               	.LM675:
 4070 0f5e 3199      		sbic 38-32,1
 4071 0f60 00C0      		rjmp .L429
 4072               	.L428:
 4073               	.LBE22:
 4075               	.LM676:
 4076 0f62 409A      		sbi 40-32,0
 910:../../../src/radio/cc2420/source/basic_rf.c ****             FASTSPI_READ_FIFO_BYTE(tmp);
 4078               	.LM677:
 4079 0f64 4098      		cbi 40-32,0
 4080 0f66 8FE7      		ldi r24,lo8(127)
 4081 0f68 8EBD      		out 78-32,r24
 4082               	.L430:
 4084               	.LM678:
 4085 0f6a 0DB4      		in __tmp_reg__,77-32
 4086 0f6c 07FE      		sbrs __tmp_reg__,7
 4087 0f6e 00C0      		rjmp .L430
 4089               	.LM679:
 4090 0f70 1EBC      		out 78-32,__zero_reg__
 4091               	.L431:
 4093               	.LM680:
 4094 0f72 0DB4      		in __tmp_reg__,77-32
 4095 0f74 07FE      		sbrs __tmp_reg__,7
 4096 0f76 00C0      		rjmp .L431
 4098               	.LM681:
 4099 0f78 8EB5      		in r24,78-32
 4100 0f7a 409A      		sbi 40-32,0
 911:../../../src/radio/cc2420/source/basic_rf.c ****             FASTSPI_STROBE(CC2420_SFLUSHRX);
 4102               	.LM682:
 4103 0f7c 4098      		cbi 40-32,0
 4104 0f7e 88E0      		ldi r24,lo8(8)
 4105 0f80 8EBD      		out 78-32,r24
 4106               	.L432:
 4108               	.LM683:
 4109 0f82 0DB4      		in __tmp_reg__,77-32
 4110 0f84 07FE      		sbrs __tmp_reg__,7
 4111 0f86 00C0      		rjmp .L432
 4113               	.LM684:
 4114 0f88 409A      		sbi 40-32,0
 912:../../../src/radio/cc2420/source/basic_rf.c ****             FASTSPI_STROBE(CC2420_SFLUSHRX);
 4116               	.LM685:
 4117 0f8a 4098      		cbi 40-32,0
 4118 0f8c 88E0      		ldi r24,lo8(8)
 4119 0f8e 8EBD      		out 78-32,r24
 4120               	.L433:
 4122               	.LM686:
 4123 0f90 0DB4      		in __tmp_reg__,77-32
 4124 0f92 07FE      		sbrs __tmp_reg__,7
 4125 0f94 00C0      		rjmp .L433
 4127               	.LM687:
 4128 0f96 409A      		sbi 40-32,0
 913:../../../src/radio/cc2420/source/basic_rf.c **** #ifdef RADIO_PRIORITY_CEILING
 914:../../../src/radio/cc2420/source/basic_rf.c ****             nrk_sem_post(radio_sem);
 4130               	.LM688:
 4131 0f98 8091 0000 		lds r24,radio_sem
 4132 0f9c 9091 0000 		lds r25,radio_sem+1
 4133 0fa0 0E94 0000 		call nrk_sem_post
 915:../../../src/radio/cc2420/source/basic_rf.c **** #endif
 916:../../../src/radio/cc2420/source/basic_rf.c ****             return -3;
 4135               	.LM689:
 4136 0fa4 8DEF      		ldi r24,lo8(-3)
 4137 0fa6 00C0      		rjmp .L415
 4138               	.L424:
 917:../../../src/radio/cc2420/source/basic_rf.c ****             //printf_u( "Bad length: %d %d\n",length, rfSettings.pRxInfo->max_length );
 918:../../../src/radio/cc2420/source/basic_rf.c ****             // Otherwise, if the length is valid, then proceed with the rest of the packet
 919:../../../src/radio/cc2420/source/basic_rf.c ****         }
 920:../../../src/radio/cc2420/source/basic_rf.c ****         else
 921:../../../src/radio/cc2420/source/basic_rf.c ****         {
 922:../../../src/radio/cc2420/source/basic_rf.c ****             // Register the payload length
 923:../../../src/radio/cc2420/source/basic_rf.c ****             rfSettings.pRxInfo->length = length - RF_PACKET_OVERHEAD_SIZE - CHECKSUM_OVERHEAD;
 4140               	.LM690:
 4141 0fa8 E091 0000 		lds r30,rfSettings
 4142 0fac F091 0000 		lds r31,rfSettings+1
 4143 0fb0 4C50      		subi r20,lo8(-(-12))
 4144 0fb2 4383      		std Z+3,r20
 924:../../../src/radio/cc2420/source/basic_rf.c ****             // Read the frame control field and the data sequence number
 925:../../../src/radio/cc2420/source/basic_rf.c ****             FASTSPI_READ_FIFO_NO_WAIT((uint8_t*) &frameControlField, 2);
 4146               	.LM691:
 4147 0fb4 4098      		cbi 40-32,0
 4148 0fb6 8FE7      		ldi r24,lo8(127)
 4149 0fb8 8EBD      		out 78-32,r24
 4150               	.L434:
 4152               	.LM692:
 4153 0fba 0DB4      		in __tmp_reg__,77-32
 4154 0fbc 07FE      		sbrs __tmp_reg__,7
 4155 0fbe 00C0      		rjmp .L434
 4157               	.LM693:
 4158 0fc0 FE01      		movw r30,r28
 4159 0fc2 3196      		adiw r30,1
 856:../../../src/radio/cc2420/source/basic_rf.c **** int8_t rf_polling_rx_packet()
 4161               	.LM694:
 4162 0fc4 CE01      		movw r24,r28
 4163 0fc6 0396      		adiw r24,3
 4164               	.L436:
 4165               	.LBB23:
 4167               	.LM695:
 4168 0fc8 1EBC      		out 78-32,__zero_reg__
 4169               	.L435:
 4171               	.LM696:
 4172 0fca 0DB4      		in __tmp_reg__,77-32
 4173 0fcc 07FE      		sbrs __tmp_reg__,7
 4174 0fce 00C0      		rjmp .L435
 4176               	.LM697:
 4177 0fd0 2EB5      		in r18,78-32
 4178 0fd2 2193      		st Z+,r18
 4179 0fd4 E817      		cp r30,r24
 4180 0fd6 F907      		cpc r31,r25
 4181 0fd8 01F4      		brne .L436
 4182               	.LBE23:
 4184               	.LM698:
 4185 0fda 409A      		sbi 40-32,0
 926:../../../src/radio/cc2420/source/basic_rf.c ****             rfSettings.pRxInfo->ackRequest = !!(frameControlField & RF_FCF_ACK_BM);
 4187               	.LM699:
 4188 0fdc E091 0000 		lds r30,rfSettings
 4189 0fe0 F091 0000 		lds r31,rfSettings+1
 4190 0fe4 9981      		ldd r25,Y+1
 4191 0fe6 81E0      		ldi r24,lo8(1)
 4192 0fe8 95FF      		sbrs r25,5
 4193 0fea 80E0      		ldi r24,lo8(0)
 4194               	.L437:
 4195 0fec 8783      		std Z+7,r24
 927:../../../src/radio/cc2420/source/basic_rf.c ****             FASTSPI_READ_FIFO_BYTE(rfSettings.pRxInfo->seqNumber);
 4197               	.LM700:
 4198 0fee 4098      		cbi 40-32,0
 4199 0ff0 8FE7      		ldi r24,lo8(127)
 4200 0ff2 8EBD      		out 78-32,r24
 4201               	.L438:
 4203               	.LM701:
 4204 0ff4 0DB4      		in __tmp_reg__,77-32
 4205 0ff6 07FE      		sbrs __tmp_reg__,7
 4206 0ff8 00C0      		rjmp .L438
 4208               	.LM702:
 4209 0ffa 1EBC      		out 78-32,__zero_reg__
 4210               	.L439:
 4212               	.LM703:
 4213 0ffc 0DB4      		in __tmp_reg__,77-32
 4214 0ffe 07FE      		sbrs __tmp_reg__,7
 4215 1000 00C0      		rjmp .L439
 4217               	.LM704:
 4218 1002 E091 0000 		lds r30,rfSettings
 4219 1006 F091 0000 		lds r31,rfSettings+1
 4220 100a 8EB5      		in r24,78-32
 4221 100c 8083      		st Z,r24
 4222 100e 409A      		sbi 40-32,0
 928:../../../src/radio/cc2420/source/basic_rf.c **** 
 929:../../../src/radio/cc2420/source/basic_rf.c ****             // Is this an acknowledgment packet?
 930:../../../src/radio/cc2420/source/basic_rf.c ****             /*
 931:../../../src/radio/cc2420/source/basic_rf.c ****                 	if ((length == RF_ACK_PACKET_SIZE) && (frameControlField == RF_ACK_FCF) && (rfSett
 932:../../../src/radio/cc2420/source/basic_rf.c **** 
 933:../../../src/radio/cc2420/source/basic_rf.c ****              	       	// Read the footer and check for CRC OK
 934:../../../src/radio/cc2420/source/basic_rf.c ****             			FASTSPI_READ_FIFO_NO_WAIT((uint8_t*) pFooter, 2);
 935:../../../src/radio/cc2420/source/basic_rf.c **** 
 936:../../../src/radio/cc2420/source/basic_rf.c ****             			// Indicate the successful ack reception (this flag is polled by the transmission ro
 937:../../../src/radio/cc2420/source/basic_rf.c ****             			if (pFooter[1] & RF_CRC_OK_BM) rfSettings.ackReceived = TRUE;
 938:../../../src/radio/cc2420/source/basic_rf.c **** 
 939:../../../src/radio/cc2420/source/basic_rf.c ****             		// Too small to be a valid packet?
 940:../../../src/radio/cc2420/source/basic_rf.c ****             		} else if (length < RF_PACKET_OVERHEAD_SIZE) {
 941:../../../src/radio/cc2420/source/basic_rf.c ****             			FASTSPI_READ_FIFO_GARBAGE(length - 3);
 942:../../../src/radio/cc2420/source/basic_rf.c **** 
 943:../../../src/radio/cc2420/source/basic_rf.c ****             		// Receive the rest of the packet
 944:../../../src/radio/cc2420/source/basic_rf.c ****             		} else {
 945:../../../src/radio/cc2420/source/basic_rf.c ****             */
 946:../../../src/radio/cc2420/source/basic_rf.c ****             // Skip the destination PAN and address (that's taken care of by harware address recogn
 947:../../../src/radio/cc2420/source/basic_rf.c ****             FASTSPI_READ_FIFO_GARBAGE(4);
 4224               	.LM705:
 4225 1010 4098      		cbi 40-32,0
 4226 1012 8FE7      		ldi r24,lo8(127)
 4227 1014 8EBD      		out 78-32,r24
 4228               	.L440:
 4230               	.LM706:
 4231 1016 0DB4      		in __tmp_reg__,77-32
 4232 1018 07FE      		sbrs __tmp_reg__,7
 4233 101a 00C0      		rjmp .L440
 4235               	.LM707:
 4236 101c 84E0      		ldi r24,lo8(4)
 4237 101e 00C0      		rjmp .L443
 4238               	.L445:
 4239               	.LBB24:
 4241               	.LM708:
 4242 1020 1EBC      		out 78-32,__zero_reg__
 4243               	.L442:
 4245               	.LM709:
 4246 1022 0DB4      		in __tmp_reg__,77-32
 4247 1024 07FE      		sbrs __tmp_reg__,7
 4248 1026 00C0      		rjmp .L442
 4250               	.LM710:
 4251 1028 8150      		subi r24,lo8(-(-1))
 4252 102a 01F0      		breq .L444
 4253               	.L443:
 4255               	.LM711:
 4256 102c 3199      		sbic 38-32,1
 4257 102e 00C0      		rjmp .L445
 4258               	.L444:
 4259               	.LBE24:
 4261               	.LM712:
 4262 1030 409A      		sbi 40-32,0
 948:../../../src/radio/cc2420/source/basic_rf.c **** 
 949:../../../src/radio/cc2420/source/basic_rf.c ****             // Read the source address
 950:../../../src/radio/cc2420/source/basic_rf.c ****             FASTSPI_READ_FIFO_NO_WAIT((uint8_t*) &rfSettings.pRxInfo->srcAddr, 2);
 4264               	.LM713:
 4265 1032 4098      		cbi 40-32,0
 4266 1034 8FE7      		ldi r24,lo8(127)
 4267 1036 8EBD      		out 78-32,r24
 4268               	.L446:
 4270               	.LM714:
 4271 1038 0DB4      		in __tmp_reg__,77-32
 4272 103a 07FE      		sbrs __tmp_reg__,7
 4273 103c 00C0      		rjmp .L446
 4275               	.LM715:
 4276 103e 80E0      		ldi r24,lo8(0)
 4277 1040 90E0      		ldi r25,hi8(0)
 4278               	.L448:
 4279               	.LBB25:
 4280 1042 1EBC      		out 78-32,__zero_reg__
 4281               	.L447:
 4283               	.LM716:
 4284 1044 0DB4      		in __tmp_reg__,77-32
 4285 1046 07FE      		sbrs __tmp_reg__,7
 4286 1048 00C0      		rjmp .L447
 4288               	.LM717:
 4289 104a E091 0000 		lds r30,rfSettings
 4290 104e F091 0000 		lds r31,rfSettings+1
 4291 1052 2EB5      		in r18,78-32
 4292 1054 E80F      		add r30,r24
 4293 1056 F91F      		adc r31,r25
 4294 1058 2183      		std Z+1,r18
 4295 105a 0196      		adiw r24,1
 4296 105c 8230      		cpi r24,2
 4297 105e 9105      		cpc r25,__zero_reg__
 4298 1060 01F4      		brne .L448
 4299               	.LBE25:
 4301               	.LM718:
 4302 1062 409A      		sbi 40-32,0
 951:../../../src/radio/cc2420/source/basic_rf.c **** 
 952:../../../src/radio/cc2420/source/basic_rf.c ****             if(frameControlField & RF_SEC_BM)
 4304               	.LM719:
 4305 1064 8981      		ldd r24,Y+1
 4306 1066 83FF      		sbrs r24,3
 4307 1068 00C0      		rjmp .L449
 4308               	.LBB26:
 953:../../../src/radio/cc2420/source/basic_rf.c ****             {
 954:../../../src/radio/cc2420/source/basic_rf.c ****                 uint8_t n;
 955:../../../src/radio/cc2420/source/basic_rf.c ****                 // READ rx_ctr and set it
 956:../../../src/radio/cc2420/source/basic_rf.c ****                 FASTSPI_READ_FIFO_NO_WAIT((uint8_t*) &rx_ctr, 4);
 4310               	.LM720:
 4311 106a 4098      		cbi 40-32,0
 4312 106c 8FE7      		ldi r24,lo8(127)
 4313 106e 8EBD      		out 78-32,r24
 4314               	.L450:
 4316               	.LM721:
 4317 1070 0DB4      		in __tmp_reg__,77-32
 4318 1072 07FE      		sbrs __tmp_reg__,7
 4319 1074 00C0      		rjmp .L450
 4321               	.LM722:
 4322 1076 E0E0      		ldi r30,lo8(rx_ctr)
 4323 1078 F0E0      		ldi r31,hi8(rx_ctr)
 4324               	.L452:
 4325               	.LBB27:
 4327               	.LM723:
 4328 107a 1EBC      		out 78-32,__zero_reg__
 4329               	.L451:
 4331               	.LM724:
 4332 107c 0DB4      		in __tmp_reg__,77-32
 4333 107e 07FE      		sbrs __tmp_reg__,7
 4334 1080 00C0      		rjmp .L451
 4336               	.LM725:
 4337 1082 8EB5      		in r24,78-32
 4338 1084 8193      		st Z+,r24
 4339 1086 80E0      		ldi r24,hi8(rx_ctr+4)
 4340 1088 E030      		cpi r30,lo8(rx_ctr+4)
 4341 108a F807      		cpc r31,r24
 4342 108c 01F4      		brne .L452
 4343               	.LBE27:
 4345               	.LM726:
 4346 108e 409A      		sbi 40-32,0
 957:../../../src/radio/cc2420/source/basic_rf.c ****                 FASTSPI_WRITE_RAM(&rx_ctr[0],(CC2420RAM_RXNONCE+9),2,n);
 4348               	.LM727:
 4349 1090 4098      		cbi 40-32,0
 4350 1092 89E9      		ldi r24,lo8(-103)
 4351 1094 8EBD      		out 78-32,r24
 4352               	.L453:
 4354               	.LM728:
 4355 1096 0DB4      		in __tmp_reg__,77-32
 4356 1098 07FE      		sbrs __tmp_reg__,7
 4357 109a 00C0      		rjmp .L453
 4359               	.LM729:
 4360 109c 80E8      		ldi r24,lo8(-128)
 4361 109e 8EBD      		out 78-32,r24
 4362               	.L454:
 4364               	.LM730:
 4365 10a0 0DB4      		in __tmp_reg__,77-32
 4366 10a2 07FE      		sbrs __tmp_reg__,7
 4367 10a4 00C0      		rjmp .L454
 4369               	.LM731:
 4370 10a6 82E0      		ldi r24,lo8(2)
 4371               	.L456:
 4372 10a8 8150      		subi r24,lo8(-(-1))
 4373 10aa E82F      		mov r30,r24
 4374 10ac F0E0      		ldi r31,lo8(0)
 4375 10ae E050      		subi r30,lo8(-(rx_ctr))
 4376 10b0 F040      		sbci r31,hi8(-(rx_ctr))
 4377 10b2 9081      		ld r25,Z
 4378 10b4 9EBD      		out 78-32,r25
 4379               	.L455:
 4381               	.LM732:
 4382 10b6 0DB4      		in __tmp_reg__,77-32
 4383 10b8 07FE      		sbrs __tmp_reg__,7
 4384 10ba 00C0      		rjmp .L455
 4386               	.LM733:
 4387 10bc 8823      		tst r24
 4388 10be 01F4      		brne .L456
 4390               	.LM734:
 4391 10c0 409A      		sbi 40-32,0
 958:../../../src/radio/cc2420/source/basic_rf.c ****                 FASTSPI_WRITE_RAM(&rx_ctr[2],(CC2420RAM_RXNONCE+11),2,n);
 4393               	.LM735:
 4394 10c2 4098      		cbi 40-32,0
 4395 10c4 8BE9      		ldi r24,lo8(-101)
 4396 10c6 8EBD      		out 78-32,r24
 4397               	.L457:
 4399               	.LM736:
 4400 10c8 0DB4      		in __tmp_reg__,77-32
 4401 10ca 07FE      		sbrs __tmp_reg__,7
 4402 10cc 00C0      		rjmp .L457
 4404               	.LM737:
 4405 10ce 80E8      		ldi r24,lo8(-128)
 4406 10d0 8EBD      		out 78-32,r24
 4407               	.L458:
 4409               	.LM738:
 4410 10d2 0DB4      		in __tmp_reg__,77-32
 4411 10d4 07FE      		sbrs __tmp_reg__,7
 4412 10d6 00C0      		rjmp .L458
 4414               	.LM739:
 4415 10d8 82E0      		ldi r24,lo8(2)
 4416               	.L460:
 4417 10da 8150      		subi r24,lo8(-(-1))
 4418 10dc E82F      		mov r30,r24
 4419 10de F0E0      		ldi r31,lo8(0)
 4420 10e0 E050      		subi r30,lo8(-(rx_ctr+2))
 4421 10e2 F040      		sbci r31,hi8(-(rx_ctr+2))
 4422 10e4 9081      		ld r25,Z
 4423 10e6 9EBD      		out 78-32,r25
 4424               	.L459:
 4426               	.LM740:
 4427 10e8 0DB4      		in __tmp_reg__,77-32
 4428 10ea 07FE      		sbrs __tmp_reg__,7
 4429 10ec 00C0      		rjmp .L459
 4431               	.LM741:
 4432 10ee 8823      		tst r24
 4433 10f0 01F4      		brne .L460
 4435               	.LM742:
 4436 10f2 409A      		sbi 40-32,0
 959:../../../src/radio/cc2420/source/basic_rf.c ****                 FASTSPI_STROBE(CC2420_SRXDEC);  // if packet is encrypted then decrypt
 4438               	.LM743:
 4439 10f4 4098      		cbi 40-32,0
 4440 10f6 8CE0      		ldi r24,lo8(12)
 4441 10f8 8EBD      		out 78-32,r24
 4442               	.L461:
 4444               	.LM744:
 4445 10fa 0DB4      		in __tmp_reg__,77-32
 4446 10fc 07FE      		sbrs __tmp_reg__,7
 4447 10fe 00C0      		rjmp .L461
 4449               	.LM745:
 4450 1100 409A      		sbi 40-32,0
 960:../../../src/radio/cc2420/source/basic_rf.c ****                 last_pkt_encrypted=1;
 4452               	.LM746:
 4453 1102 81E0      		ldi r24,lo8(1)
 4454 1104 8093 0000 		sts last_pkt_encrypted,r24
 961:../../../src/radio/cc2420/source/basic_rf.c ****                 rfSettings.pRxInfo->length -= 4;
 4456               	.LM747:
 4457 1108 E091 0000 		lds r30,rfSettings
 4458 110c F091 0000 		lds r31,rfSettings+1
 4459 1110 8381      		ldd r24,Z+3
 4460 1112 8450      		subi r24,lo8(-(-4))
 4461 1114 8383      		std Z+3,r24
 4462               	.L449:
 4463               	.LBE26:
 962:../../../src/radio/cc2420/source/basic_rf.c ****             }
 963:../../../src/radio/cc2420/source/basic_rf.c **** 
 964:../../../src/radio/cc2420/source/basic_rf.c ****             // Read the packet payload
 965:../../../src/radio/cc2420/source/basic_rf.c ****             FASTSPI_READ_FIFO_NO_WAIT(rfSettings.pRxInfo->pPayload, rfSettings.pRxInfo->length);
 4465               	.LM748:
 4466 1116 4098      		cbi 40-32,0
 4467 1118 8FE7      		ldi r24,lo8(127)
 4468 111a 8EBD      		out 78-32,r24
 4469               	.L462:
 4471               	.LM749:
 4472 111c 0DB4      		in __tmp_reg__,77-32
 4473 111e 07FE      		sbrs __tmp_reg__,7
 4474 1120 00C0      		rjmp .L462
 4476               	.LM750:
 4477 1122 40E0      		ldi r20,lo8(0)
 4478 1124 00C0      		rjmp .L463
 4479               	.L465:
 4480               	.LBB28:
 4482               	.LM751:
 4483 1126 1EBC      		out 78-32,__zero_reg__
 4484               	.L464:
 4486               	.LM752:
 4487 1128 0DB4      		in __tmp_reg__,77-32
 4488 112a 07FE      		sbrs __tmp_reg__,7
 4489 112c 00C0      		rjmp .L464
 4491               	.LM753:
 4492 112e E091 0000 		lds r30,rfSettings
 4493 1132 F091 0000 		lds r31,rfSettings+1
 4494 1136 8EB5      		in r24,78-32
 4495 1138 0580      		ldd __tmp_reg__,Z+5
 4496 113a F681      		ldd r31,Z+6
 4497 113c E02D      		mov r30,__tmp_reg__
 4498 113e E40F      		add r30,r20
 4499 1140 F11D      		adc r31,__zero_reg__
 4500 1142 8083      		st Z,r24
 4501 1144 4F5F      		subi r20,lo8(-(1))
 4502               	.L463:
 4504               	.LM754:
 4505 1146 E091 0000 		lds r30,rfSettings
 4506 114a F091 0000 		lds r31,rfSettings+1
 4507 114e 242F      		mov r18,r20
 4508 1150 30E0      		ldi r19,lo8(0)
 4509 1152 8381      		ldd r24,Z+3
 4510 1154 9927      		clr r25
 4511 1156 87FD      		sbrc r24,7
 4512 1158 9095      		com r25
 4513 115a 2817      		cp r18,r24
 4514 115c 3907      		cpc r19,r25
 4515 115e 04F0      		brlt .L465
 4516               	.LBE28:
 4518               	.LM755:
 4519 1160 409A      		sbi 40-32,0
 966:../../../src/radio/cc2420/source/basic_rf.c ****             FASTSPI_READ_FIFO_NO_WAIT(&rx_checksum, 1 );
 4521               	.LM756:
 4522 1162 4098      		cbi 40-32,0
 4523 1164 8FE7      		ldi r24,lo8(127)
 4524 1166 8EBD      		out 78-32,r24
 4525               	.L466:
 4527               	.LM757:
 4528 1168 0DB4      		in __tmp_reg__,77-32
 4529 116a 07FE      		sbrs __tmp_reg__,7
 4530 116c 00C0      		rjmp .L466
 4531               	.LBB29:
 4533               	.LM758:
 4534 116e 1EBC      		out 78-32,__zero_reg__
 4535               	.L467:
 4537               	.LM759:
 4538 1170 0DB4      		in __tmp_reg__,77-32
 4539 1172 07FE      		sbrs __tmp_reg__,7
 4540 1174 00C0      		rjmp .L467
 4542               	.LM760:
 4543 1176 6EB5      		in r22,78-32
 4544               	.LBE29:
 4545 1178 409A      		sbi 40-32,0
 967:../../../src/radio/cc2420/source/basic_rf.c **** 
 968:../../../src/radio/cc2420/source/basic_rf.c ****             // Read the footer to get the RSSI value
 969:../../../src/radio/cc2420/source/basic_rf.c ****             FASTSPI_READ_FIFO_NO_WAIT((uint8_t*) pFooter, 2);
 4547               	.LM761:
 4548 117a 4098      		cbi 40-32,0
 4549 117c 8FE7      		ldi r24,lo8(127)
 4550 117e 8EBD      		out 78-32,r24
 4551               	.L468:
 4553               	.LM762:
 4554 1180 0DB4      		in __tmp_reg__,77-32
 4555 1182 07FE      		sbrs __tmp_reg__,7
 4556 1184 00C0      		rjmp .L468
 4558               	.LM763:
 4559 1186 FE01      		movw r30,r28
 4560 1188 3396      		adiw r30,3
 856:../../../src/radio/cc2420/source/basic_rf.c **** int8_t rf_polling_rx_packet()
 4562               	.LM764:
 4563 118a CE01      		movw r24,r28
 4564 118c 0596      		adiw r24,5
 4565               	.L470:
 4566               	.LBB30:
 4568               	.LM765:
 4569 118e 1EBC      		out 78-32,__zero_reg__
 4570               	.L469:
 4572               	.LM766:
 4573 1190 0DB4      		in __tmp_reg__,77-32
 4574 1192 07FE      		sbrs __tmp_reg__,7
 4575 1194 00C0      		rjmp .L469
 4577               	.LM767:
 4578 1196 2EB5      		in r18,78-32
 4579 1198 2193      		st Z+,r18
 4580 119a E817      		cp r30,r24
 4581 119c F907      		cpc r31,r25
 4582 119e 01F4      		brne .L470
 4583               	.LBE30:
 4585               	.LM768:
 4586 11a0 409A      		sbi 40-32,0
 970:../../../src/radio/cc2420/source/basic_rf.c ****             rfSettings.pRxInfo->rssi = pFooter[0];
 4588               	.LM769:
 4589 11a2 E091 0000 		lds r30,rfSettings
 4590 11a6 F091 0000 		lds r31,rfSettings+1
 4591 11aa 8B81      		ldd r24,Y+3
 4592 11ac 8087      		std Z+8,r24
 971:../../../src/radio/cc2420/source/basic_rf.c ****             checksum=0;
 972:../../../src/radio/cc2420/source/basic_rf.c ****             for(i=0; i<rfSettings.pRxInfo->length; i++ )
 4594               	.LM770:
 4595 11ae 50E0      		ldi r21,lo8(0)
 971:../../../src/radio/cc2420/source/basic_rf.c ****             checksum=0;
 4597               	.LM771:
 4598 11b0 40E0      		ldi r20,lo8(0)
 4600               	.LM772:
 4601 11b2 00C0      		rjmp .L471
 4602               	.L472:
 973:../../../src/radio/cc2420/source/basic_rf.c ****             {
 974:../../../src/radio/cc2420/source/basic_rf.c ****                 checksum+=rfSettings.pRxInfo->pPayload[i];
 4604               	.LM773:
 4605 11b4 E091 0000 		lds r30,rfSettings
 4606 11b8 F091 0000 		lds r31,rfSettings+1
 4607 11bc 0580      		ldd __tmp_reg__,Z+5
 4608 11be F681      		ldd r31,Z+6
 4609 11c0 E02D      		mov r30,__tmp_reg__
 4610 11c2 E80F      		add r30,r24
 4611 11c4 F91F      		adc r31,r25
 4612 11c6 8081      		ld r24,Z
 4613 11c8 480F      		add r20,r24
 972:../../../src/radio/cc2420/source/basic_rf.c ****             for(i=0; i<rfSettings.pRxInfo->length; i++ )
 4615               	.LM774:
 4616 11ca 5F5F      		subi r21,lo8(-(1))
 4617               	.L471:
 972:../../../src/radio/cc2420/source/basic_rf.c ****             for(i=0; i<rfSettings.pRxInfo->length; i++ )
 4619               	.LM775:
 4620 11cc E091 0000 		lds r30,rfSettings
 4621 11d0 F091 0000 		lds r31,rfSettings+1
 4622 11d4 852F      		mov r24,r21
 4623 11d6 90E0      		ldi r25,lo8(0)
 4624 11d8 2381      		ldd r18,Z+3
 4625 11da 3327      		clr r19
 4626 11dc 27FD      		sbrc r18,7
 4627 11de 3095      		com r19
 4628 11e0 8217      		cp r24,r18
 4629 11e2 9307      		cpc r25,r19
 4630 11e4 04F0      		brlt .L472
 975:../../../src/radio/cc2420/source/basic_rf.c ****                 //printf( "%d ", rfSettings.pRxInfo->pPayload[i]);
 976:../../../src/radio/cc2420/source/basic_rf.c ****             }
 977:../../../src/radio/cc2420/source/basic_rf.c **** 
 978:../../../src/radio/cc2420/source/basic_rf.c ****             if(checksum!=rx_checksum)
 4632               	.LM776:
 4633 11e6 4617      		cp r20,r22
 4634 11e8 01F0      		breq .L473
 979:../../../src/radio/cc2420/source/basic_rf.c ****             {
 980:../../../src/radio/cc2420/source/basic_rf.c ****                 //printf( "Checksum failed %d %d\r",rx_checksum, checksum );
 981:../../../src/radio/cc2420/source/basic_rf.c ****                 // always read 1 byte before flush (data sheet pg 62)
 982:../../../src/radio/cc2420/source/basic_rf.c ****                 FASTSPI_READ_FIFO_BYTE(tmp);
 4636               	.LM777:
 4637 11ea 4098      		cbi 40-32,0
 4638 11ec 8FE7      		ldi r24,lo8(127)
 4639 11ee 8EBD      		out 78-32,r24
 4640               	.L474:
 4642               	.LM778:
 4643 11f0 0DB4      		in __tmp_reg__,77-32
 4644 11f2 07FE      		sbrs __tmp_reg__,7
 4645 11f4 00C0      		rjmp .L474
 4647               	.LM779:
 4648 11f6 1EBC      		out 78-32,__zero_reg__
 4649               	.L475:
 4651               	.LM780:
 4652 11f8 0DB4      		in __tmp_reg__,77-32
 4653 11fa 07FE      		sbrs __tmp_reg__,7
 4654 11fc 00C0      		rjmp .L475
 4656               	.LM781:
 4657 11fe 8EB5      		in r24,78-32
 4658 1200 409A      		sbi 40-32,0
 983:../../../src/radio/cc2420/source/basic_rf.c ****                 FASTSPI_STROBE(CC2420_SFLUSHRX);
 4660               	.LM782:
 4661 1202 4098      		cbi 40-32,0
 4662 1204 88E0      		ldi r24,lo8(8)
 4663 1206 8EBD      		out 78-32,r24
 4664               	.L476:
 4666               	.LM783:
 4667 1208 0DB4      		in __tmp_reg__,77-32
 4668 120a 07FE      		sbrs __tmp_reg__,7
 4669 120c 00C0      		rjmp .L476
 4671               	.LM784:
 4672 120e 409A      		sbi 40-32,0
 984:../../../src/radio/cc2420/source/basic_rf.c ****                 FASTSPI_STROBE(CC2420_SFLUSHRX);
 4674               	.LM785:
 4675 1210 4098      		cbi 40-32,0
 4676 1212 88E0      		ldi r24,lo8(8)
 4677 1214 8EBD      		out 78-32,r24
 4678               	.L477:
 4680               	.LM786:
 4681 1216 0DB4      		in __tmp_reg__,77-32
 4682 1218 07FE      		sbrs __tmp_reg__,7
 4683 121a 00C0      		rjmp .L477
 4685               	.LM787:
 4686 121c 409A      		sbi 40-32,0
 985:../../../src/radio/cc2420/source/basic_rf.c **** #ifdef RADIO_PRIORITY_CEILING
 986:../../../src/radio/cc2420/source/basic_rf.c ****                 nrk_sem_post(radio_sem);
 4688               	.LM788:
 4689 121e 8091 0000 		lds r24,radio_sem
 4690 1222 9091 0000 		lds r25,radio_sem+1
 4691 1226 0E94 0000 		call nrk_sem_post
 987:../../../src/radio/cc2420/source/basic_rf.c **** #endif
 988:../../../src/radio/cc2420/source/basic_rf.c ****                 return -4;
 4693               	.LM789:
 4694 122a 8CEF      		ldi r24,lo8(-4)
 4695 122c 00C0      		rjmp .L415
 4696               	.L473:
 989:../../../src/radio/cc2420/source/basic_rf.c ****             }
 990:../../../src/radio/cc2420/source/basic_rf.c ****             if (pFooter[1] & RF_CRC_OK_BM)
 4698               	.LM790:
 4699 122e 8C81      		ldd r24,Y+4
 4700 1230 87FF      		sbrs r24,7
 4701 1232 00C0      		rjmp .L478
 991:../../../src/radio/cc2420/source/basic_rf.c ****             {
 992:../../../src/radio/cc2420/source/basic_rf.c ****                 //rfSettings.pRxInfo = rf_rx_callback(rfSettings.pRxInfo);
 993:../../../src/radio/cc2420/source/basic_rf.c ****                 rx_ready++;
 4703               	.LM791:
 4704 1234 8091 0000 		lds r24,rx_ready
 4705 1238 8F5F      		subi r24,lo8(-(1))
 4706 123a 8093 0000 		sts rx_ready,r24
 994:../../../src/radio/cc2420/source/basic_rf.c **** #ifdef RADIO_PRIORITY_CEILING
 995:../../../src/radio/cc2420/source/basic_rf.c ****                 nrk_sem_post(radio_sem);
 4708               	.LM792:
 4709 123e 8091 0000 		lds r24,radio_sem
 4710 1242 9091 0000 		lds r25,radio_sem+1
 4711 1246 0E94 0000 		call nrk_sem_post
 996:../../../src/radio/cc2420/source/basic_rf.c **** #endif
 997:../../../src/radio/cc2420/source/basic_rf.c ****                 return 1;
 4713               	.LM793:
 4714 124a 81E0      		ldi r24,lo8(1)
 4715 124c 00C0      		rjmp .L415
 4716               	.L478:
 998:../../../src/radio/cc2420/source/basic_rf.c ****             }
 999:../../../src/radio/cc2420/source/basic_rf.c ****             else
1000:../../../src/radio/cc2420/source/basic_rf.c ****             {
1001:../../../src/radio/cc2420/source/basic_rf.c ****                 // always read 1 byte before flush (data sheet pg 62)
1002:../../../src/radio/cc2420/source/basic_rf.c ****                 FASTSPI_READ_FIFO_BYTE(tmp);
 4718               	.LM794:
 4719 124e 4098      		cbi 40-32,0
 4720 1250 8FE7      		ldi r24,lo8(127)
 4721 1252 8EBD      		out 78-32,r24
 4722               	.L479:
 4724               	.LM795:
 4725 1254 0DB4      		in __tmp_reg__,77-32
 4726 1256 07FE      		sbrs __tmp_reg__,7
 4727 1258 00C0      		rjmp .L479
 4729               	.LM796:
 4730 125a 1EBC      		out 78-32,__zero_reg__
 4731               	.L480:
 4733               	.LM797:
 4734 125c 0DB4      		in __tmp_reg__,77-32
 4735 125e 07FE      		sbrs __tmp_reg__,7
 4736 1260 00C0      		rjmp .L480
 4738               	.LM798:
 4739 1262 8EB5      		in r24,78-32
 4740 1264 409A      		sbi 40-32,0
1003:../../../src/radio/cc2420/source/basic_rf.c ****                 FASTSPI_STROBE(CC2420_SFLUSHRX);
 4742               	.LM799:
 4743 1266 4098      		cbi 40-32,0
 4744 1268 88E0      		ldi r24,lo8(8)
 4745 126a 8EBD      		out 78-32,r24
 4746               	.L481:
 4748               	.LM800:
 4749 126c 0DB4      		in __tmp_reg__,77-32
 4750 126e 07FE      		sbrs __tmp_reg__,7
 4751 1270 00C0      		rjmp .L481
 4753               	.LM801:
 4754 1272 409A      		sbi 40-32,0
1004:../../../src/radio/cc2420/source/basic_rf.c ****                 FASTSPI_STROBE(CC2420_SFLUSHRX);
 4756               	.LM802:
 4757 1274 4098      		cbi 40-32,0
 4758 1276 88E0      		ldi r24,lo8(8)
 4759 1278 8EBD      		out 78-32,r24
 4760               	.L482:
 4762               	.LM803:
 4763 127a 0DB4      		in __tmp_reg__,77-32
 4764 127c 07FE      		sbrs __tmp_reg__,7
 4765 127e 00C0      		rjmp .L482
 4767               	.LM804:
 4768 1280 409A      		sbi 40-32,0
1005:../../../src/radio/cc2420/source/basic_rf.c **** #ifdef RADIO_PRIORITY_CEILING
1006:../../../src/radio/cc2420/source/basic_rf.c ****                 nrk_sem_post(radio_sem);
 4770               	.LM805:
 4771 1282 8091 0000 		lds r24,radio_sem
 4772 1286 9091 0000 		lds r25,radio_sem+1
 4773 128a 0E94 0000 		call nrk_sem_post
1007:../../../src/radio/cc2420/source/basic_rf.c **** #endif
1008:../../../src/radio/cc2420/source/basic_rf.c ****                 return -5;
 4775               	.LM806:
 4776 128e 8BEF      		ldi r24,lo8(-5)
 4777 1290 00C0      		rjmp .L415
 4778               	.L409:
 4779               	.LBE21:
1009:../../../src/radio/cc2420/source/basic_rf.c ****             }
1010:../../../src/radio/cc2420/source/basic_rf.c **** //		}
1011:../../../src/radio/cc2420/source/basic_rf.c **** 
1012:../../../src/radio/cc2420/source/basic_rf.c ****         }
1013:../../../src/radio/cc2420/source/basic_rf.c **** 
1014:../../../src/radio/cc2420/source/basic_rf.c **** 
1015:../../../src/radio/cc2420/source/basic_rf.c ****     }
1016:../../../src/radio/cc2420/source/basic_rf.c **** #ifdef RADIO_PRIORITY_CEILING
1017:../../../src/radio/cc2420/source/basic_rf.c ****     nrk_sem_post(radio_sem);
 4781               	.LM807:
 4782 1292 8091 0000 		lds r24,radio_sem
 4783 1296 9091 0000 		lds r25,radio_sem+1
 4784 129a 0E94 0000 		call nrk_sem_post
1018:../../../src/radio/cc2420/source/basic_rf.c **** #endif
1019:../../../src/radio/cc2420/source/basic_rf.c ****     return 0;
 4786               	.LM808:
 4787 129e 80E0      		ldi r24,lo8(0)
 4788               	.L415:
 4789               	/* epilogue start */
1020:../../../src/radio/cc2420/source/basic_rf.c **** }
 4791               	.LM809:
 4792 12a0 0F90      		pop __tmp_reg__
 4793 12a2 0F90      		pop __tmp_reg__
 4794 12a4 0F90      		pop __tmp_reg__
 4795 12a6 0F90      		pop __tmp_reg__
 4796 12a8 CF91      		pop r28
 4797 12aa DF91      		pop r29
 4798 12ac 0895      		ret
 4812               	.Lscope28:
 4814               		.stabd	78,0,0
 4816               	.global	rf_rx_packet
 4818               	rf_rx_packet:
 4819               		.stabd	46,0,0
1021:../../../src/radio/cc2420/source/basic_rf.c **** 
1022:../../../src/radio/cc2420/source/basic_rf.c **** int8_t rf_rx_packet()
1023:../../../src/radio/cc2420/source/basic_rf.c **** {
 4821               	.LM810:
 4822               	.LFBB29:
 4823               	/* prologue: function */
 4824               	/* frame size = 0 */
 4825               	/* stack size = 0 */
 4826               	.L__stack_usage = 0
1024:../../../src/radio/cc2420/source/basic_rf.c ****     int8_t tmp;
1025:../../../src/radio/cc2420/source/basic_rf.c ****     if(rx_ready>0)
 4828               	.LM811:
 4829 12ae 8091 0000 		lds r24,rx_ready
 4830 12b2 8823      		tst r24
 4831 12b4 01F0      		breq .L539
1026:../../../src/radio/cc2420/source/basic_rf.c ****     {
1027:../../../src/radio/cc2420/source/basic_rf.c ****         tmp=rx_ready;
 4833               	.LM812:
 4834 12b6 8091 0000 		lds r24,rx_ready
1028:../../../src/radio/cc2420/source/basic_rf.c ****         rx_ready=0;
 4836               	.LM813:
 4837 12ba 1092 0000 		sts rx_ready,__zero_reg__
1029:../../../src/radio/cc2420/source/basic_rf.c ****         return tmp;
 4839               	.LM814:
 4840 12be 0895      		ret
 4841               	.L539:
1030:../../../src/radio/cc2420/source/basic_rf.c ****     }
1031:../../../src/radio/cc2420/source/basic_rf.c ****     return 0;
 4843               	.LM815:
 4844 12c0 80E0      		ldi r24,lo8(0)
1032:../../../src/radio/cc2420/source/basic_rf.c **** }
 4846               	.LM816:
 4847 12c2 0895      		ret
 4852               	.Lscope29:
 4854               		.stabd	78,0,0
 4856               	.global	rf_flush_rx_fifo
 4858               	rf_flush_rx_fifo:
 4859               		.stabd	46,0,0
1033:../../../src/radio/cc2420/source/basic_rf.c **** 
1034:../../../src/radio/cc2420/source/basic_rf.c **** 
1035:../../../src/radio/cc2420/source/basic_rf.c **** inline void rf_flush_rx_fifo()
1036:../../../src/radio/cc2420/source/basic_rf.c **** {
 4861               	.LM817:
 4862               	.LFBB30:
 4863               	/* prologue: function */
 4864               	/* frame size = 0 */
 4865               	/* stack size = 0 */
 4866               	.L__stack_usage = 0
1037:../../../src/radio/cc2420/source/basic_rf.c ****     FASTSPI_STROBE(CC2420_SFLUSHRX);
 4868               	.LM818:
 4869 12c4 4098      		cbi 40-32,0
 4870 12c6 88E0      		ldi r24,lo8(8)
 4871 12c8 8EBD      		out 78-32,r24
 4872               	.L541:
 4874               	.LM819:
 4875 12ca 0DB4      		in __tmp_reg__,77-32
 4876 12cc 07FE      		sbrs __tmp_reg__,7
 4877 12ce 00C0      		rjmp .L541
 4879               	.LM820:
 4880 12d0 409A      		sbi 40-32,0
1038:../../../src/radio/cc2420/source/basic_rf.c ****     FASTSPI_STROBE(CC2420_SFLUSHRX);
 4882               	.LM821:
 4883 12d2 4098      		cbi 40-32,0
 4884 12d4 88E0      		ldi r24,lo8(8)
 4885 12d6 8EBD      		out 78-32,r24
 4886               	.L542:
 4888               	.LM822:
 4889 12d8 0DB4      		in __tmp_reg__,77-32
 4890 12da 07FE      		sbrs __tmp_reg__,7
 4891 12dc 00C0      		rjmp .L542
 4893               	.LM823:
 4894 12de 409A      		sbi 40-32,0
 4895               	/* epilogue start */
1039:../../../src/radio/cc2420/source/basic_rf.c **** }
 4897               	.LM824:
 4898 12e0 0895      		ret
 4900               	.Lscope30:
 4902               		.stabd	78,0,0
 4905               	.global	rf_set_cca_thresh
 4907               	rf_set_cca_thresh:
 4908               		.stabd	46,0,0
1040:../../../src/radio/cc2420/source/basic_rf.c **** 
1041:../../../src/radio/cc2420/source/basic_rf.c **** void rf_set_cca_thresh(int8_t t)
1042:../../../src/radio/cc2420/source/basic_rf.c **** {
 4910               	.LM825:
 4911               	.LFBB31:
 4912 12e2 1F93      		push r17
 4913               	/* prologue: function */
 4914               	/* frame size = 0 */
 4915               	/* stack size = 1 */
 4916               	.L__stack_usage = 1
 4917 12e4 182F      		mov r17,r24
1043:../../../src/radio/cc2420/source/basic_rf.c **** // default is -32
1044:../../../src/radio/cc2420/source/basic_rf.c **** // Higher number is less sensitive
1045:../../../src/radio/cc2420/source/basic_rf.c ****     uint16_t val;
1046:../../../src/radio/cc2420/source/basic_rf.c **** #ifdef RADIO_PRIORITY_CEILING
1047:../../../src/radio/cc2420/source/basic_rf.c ****     nrk_sem_pend(radio_sem);
 4919               	.LM826:
 4920 12e6 8091 0000 		lds r24,radio_sem
 4921 12ea 9091 0000 		lds r25,radio_sem+1
 4922 12ee 0E94 0000 		call nrk_sem_pend
1048:../../../src/radio/cc2420/source/basic_rf.c **** #endif
1049:../../../src/radio/cc2420/source/basic_rf.c **** 
1050:../../../src/radio/cc2420/source/basic_rf.c ****     val=(t<<8) | 0x80;
 4924               	.LM827:
 4925 12f2 812F      		mov r24,r17
 4926 12f4 9927      		clr r25
 4927 12f6 87FD      		sbrc r24,7
 4928 12f8 9095      		com r25
 4929 12fa 982F      		mov r25,r24
 4930 12fc 8827      		clr r24
 4931 12fe 8068      		ori r24,lo8(128)
1051:../../../src/radio/cc2420/source/basic_rf.c ****     FASTSPI_SETREG(CC2420_RSSI, val);
 4933               	.LM828:
 4934 1300 4098      		cbi 40-32,0
 4935 1302 23E1      		ldi r18,lo8(19)
 4936 1304 2EBD      		out 78-32,r18
 4937               	.L546:
 4939               	.LM829:
 4940 1306 0DB4      		in __tmp_reg__,77-32
 4941 1308 07FE      		sbrs __tmp_reg__,7
 4942 130a 00C0      		rjmp .L546
 4944               	.LM830:
 4945 130c 9EBD      		out 78-32,r25
 4946               	.L547:
 4948               	.LM831:
 4949 130e 0DB4      		in __tmp_reg__,77-32
 4950 1310 07FE      		sbrs __tmp_reg__,7
 4951 1312 00C0      		rjmp .L547
 4953               	.LM832:
 4954 1314 8EBD      		out 78-32,r24
 4955               	.L548:
 4957               	.LM833:
 4958 1316 0DB4      		in __tmp_reg__,77-32
 4959 1318 07FE      		sbrs __tmp_reg__,7
 4960 131a 00C0      		rjmp .L548
 4962               	.LM834:
 4963 131c 409A      		sbi 40-32,0
1052:../../../src/radio/cc2420/source/basic_rf.c **** 
1053:../../../src/radio/cc2420/source/basic_rf.c **** #ifdef RADIO_PRIORITY_CEILING
1054:../../../src/radio/cc2420/source/basic_rf.c ****     nrk_sem_post(radio_sem);
 4965               	.LM835:
 4966 131e 8091 0000 		lds r24,radio_sem
 4967 1322 9091 0000 		lds r25,radio_sem+1
 4968 1326 0E94 0000 		call nrk_sem_post
 4969               	/* epilogue start */
1055:../../../src/radio/cc2420/source/basic_rf.c **** #endif
1056:../../../src/radio/cc2420/source/basic_rf.c **** }
 4971               	.LM836:
 4972 132a 1F91      		pop r17
 4973 132c 0895      		ret
 4978               	.Lscope31:
 4980               		.stabd	78,0,0
 4982               	.global	rf_test_mode
 4984               	rf_test_mode:
 4985               		.stabd	46,0,0
1057:../../../src/radio/cc2420/source/basic_rf.c **** 
1058:../../../src/radio/cc2420/source/basic_rf.c **** void rf_test_mode()
1059:../../../src/radio/cc2420/source/basic_rf.c **** {
 4987               	.LM837:
 4988               	.LFBB32:
 4989               	/* prologue: function */
 4990               	/* frame size = 0 */
 4991               	/* stack size = 0 */
 4992               	.L__stack_usage = 0
1060:../../../src/radio/cc2420/source/basic_rf.c **** 
1061:../../../src/radio/cc2420/source/basic_rf.c **** #ifdef RADIO_PRIORITY_CEILING
1062:../../../src/radio/cc2420/source/basic_rf.c ****     nrk_sem_pend(radio_sem);
 4994               	.LM838:
 4995 132e 8091 0000 		lds r24,radio_sem
 4996 1332 9091 0000 		lds r25,radio_sem+1
 4997 1336 0E94 0000 		call nrk_sem_pend
1063:../../../src/radio/cc2420/source/basic_rf.c **** #endif
1064:../../../src/radio/cc2420/source/basic_rf.c ****     FASTSPI_STROBE(CC2420_SRFOFF); //stop radio
 4999               	.LM839:
 5000 133a 4098      		cbi 40-32,0
 5001 133c 86E0      		ldi r24,lo8(6)
 5002 133e 8EBD      		out 78-32,r24
 5003               	.L553:
 5005               	.LM840:
 5006 1340 0DB4      		in __tmp_reg__,77-32
 5007 1342 07FE      		sbrs __tmp_reg__,7
 5008 1344 00C0      		rjmp .L553
 5010               	.LM841:
 5011 1346 409A      		sbi 40-32,0
1065:../../../src/radio/cc2420/source/basic_rf.c ****     // NOTE ON SETTING CC2420_MDMCTRL1
1066:../../../src/radio/cc2420/source/basic_rf.c ****     //
1067:../../../src/radio/cc2420/source/basic_rf.c ****     // RF studio" uses TX_MODE=3 (CC2420_MDMCTRL1=0x050C)
1068:../../../src/radio/cc2420/source/basic_rf.c ****     // to send an unmodulated carrier; data sheet says TX_MODE
1069:../../../src/radio/cc2420/source/basic_rf.c ****     // can be 2 or 3. So it should not matter...
1070:../../../src/radio/cc2420/source/basic_rf.c ****     // HOWEVER, using (TX_MODE=3) sometimes causes problems when
1071:../../../src/radio/cc2420/source/basic_rf.c ****     // going back to "data" mode!
1072:../../../src/radio/cc2420/source/basic_rf.c ****     FASTSPI_SETREG(CC2420_MDMCTRL1, 0x0508); // MDMCTRL1 with TX_MODE=2
 5013               	.LM842:
 5014 1348 4098      		cbi 40-32,0
 5015 134a 82E1      		ldi r24,lo8(18)
 5016 134c 8EBD      		out 78-32,r24
 5017               	.L554:
 5019               	.LM843:
 5020 134e 0DB4      		in __tmp_reg__,77-32
 5021 1350 07FE      		sbrs __tmp_reg__,7
 5022 1352 00C0      		rjmp .L554
 5024               	.LM844:
 5025 1354 85E0      		ldi r24,lo8(5)
 5026 1356 8EBD      		out 78-32,r24
 5027               	.L555:
 5029               	.LM845:
 5030 1358 0DB4      		in __tmp_reg__,77-32
 5031 135a 07FE      		sbrs __tmp_reg__,7
 5032 135c 00C0      		rjmp .L555
 5034               	.LM846:
 5035 135e 88E0      		ldi r24,lo8(8)
 5036 1360 8EBD      		out 78-32,r24
 5037               	.L556:
 5039               	.LM847:
 5040 1362 0DB4      		in __tmp_reg__,77-32
 5041 1364 07FE      		sbrs __tmp_reg__,7
 5042 1366 00C0      		rjmp .L556
 5044               	.LM848:
 5045 1368 409A      		sbi 40-32,0
1073:../../../src/radio/cc2420/source/basic_rf.c ****     FASTSPI_SETREG(CC2420_DACTST, 0x1800); // send unmodulated carrier
 5047               	.LM849:
 5048 136a 4098      		cbi 40-32,0
 5049 136c 8EE2      		ldi r24,lo8(46)
 5050 136e 8EBD      		out 78-32,r24
 5051               	.L557:
 5053               	.LM850:
 5054 1370 0DB4      		in __tmp_reg__,77-32
 5055 1372 07FE      		sbrs __tmp_reg__,7
 5056 1374 00C0      		rjmp .L557
 5058               	.LM851:
 5059 1376 88E1      		ldi r24,lo8(24)
 5060 1378 8EBD      		out 78-32,r24
 5061               	.L558:
 5063               	.LM852:
 5064 137a 0DB4      		in __tmp_reg__,77-32
 5065 137c 07FE      		sbrs __tmp_reg__,7
 5066 137e 00C0      		rjmp .L558
 5068               	.LM853:
 5069 1380 1EBC      		out 78-32,__zero_reg__
 5070               	.L559:
 5072               	.LM854:
 5073 1382 0DB4      		in __tmp_reg__,77-32
 5074 1384 07FE      		sbrs __tmp_reg__,7
 5075 1386 00C0      		rjmp .L559
 5077               	.LM855:
 5078 1388 409A      		sbi 40-32,0
1074:../../../src/radio/cc2420/source/basic_rf.c ****     rf_flush_rx_fifo();
 5080               	.LM856:
 5081 138a 0E94 0000 		call rf_flush_rx_fifo
1075:../../../src/radio/cc2420/source/basic_rf.c **** 
1076:../../../src/radio/cc2420/source/basic_rf.c **** #ifdef RADIO_PRIORITY_CEILING
1077:../../../src/radio/cc2420/source/basic_rf.c ****     nrk_sem_post(radio_sem);
 5083               	.LM857:
 5084 138e 8091 0000 		lds r24,radio_sem
 5085 1392 9091 0000 		lds r25,radio_sem+1
 5086 1396 0E94 0000 		call nrk_sem_post
 5087               	/* epilogue start */
1078:../../../src/radio/cc2420/source/basic_rf.c **** #endif
1079:../../../src/radio/cc2420/source/basic_rf.c **** }
 5089               	.LM858:
 5090 139a 0895      		ret
 5092               	.Lscope32:
 5094               		.stabd	78,0,0
 5096               	.global	rf_data_mode
 5098               	rf_data_mode:
 5099               		.stabd	46,0,0
1080:../../../src/radio/cc2420/source/basic_rf.c **** 
1081:../../../src/radio/cc2420/source/basic_rf.c **** 
1082:../../../src/radio/cc2420/source/basic_rf.c **** /**********************************************************
1083:../../../src/radio/cc2420/source/basic_rf.c ****  * set the radio into "normal" mode (buffered TXFIFO) and go into (data) receive */
1084:../../../src/radio/cc2420/source/basic_rf.c **** void rf_data_mode()
1085:../../../src/radio/cc2420/source/basic_rf.c **** {
 5101               	.LM859:
 5102               	.LFBB33:
 5103               	/* prologue: function */
 5104               	/* frame size = 0 */
 5105               	/* stack size = 0 */
 5106               	.L__stack_usage = 0
1086:../../../src/radio/cc2420/source/basic_rf.c **** #ifdef RADIO_PRIORITY_CEILING
1087:../../../src/radio/cc2420/source/basic_rf.c ****     nrk_sem_pend(radio_sem);
 5108               	.LM860:
 5109 139c 8091 0000 		lds r24,radio_sem
 5110 13a0 9091 0000 		lds r25,radio_sem+1
 5111 13a4 0E94 0000 		call nrk_sem_pend
1088:../../../src/radio/cc2420/source/basic_rf.c **** #endif
1089:../../../src/radio/cc2420/source/basic_rf.c **** 
1090:../../../src/radio/cc2420/source/basic_rf.c **** 
1091:../../../src/radio/cc2420/source/basic_rf.c ****     FASTSPI_STROBE(CC2420_SRFOFF); //stop radio
 5113               	.LM861:
 5114 13a8 4098      		cbi 40-32,0
 5115 13aa 86E0      		ldi r24,lo8(6)
 5116 13ac 8EBD      		out 78-32,r24
 5117               	.L568:
 5119               	.LM862:
 5120 13ae 0DB4      		in __tmp_reg__,77-32
 5121 13b0 07FE      		sbrs __tmp_reg__,7
 5122 13b2 00C0      		rjmp .L568
 5124               	.LM863:
 5125 13b4 409A      		sbi 40-32,0
1092:../../../src/radio/cc2420/source/basic_rf.c ****     FASTSPI_SETREG(CC2420_MDMCTRL1, 0x0500); // default MDMCTRL1 value
 5127               	.LM864:
 5128 13b6 4098      		cbi 40-32,0
 5129 13b8 82E1      		ldi r24,lo8(18)
 5130 13ba 8EBD      		out 78-32,r24
 5131               	.L569:
 5133               	.LM865:
 5134 13bc 0DB4      		in __tmp_reg__,77-32
 5135 13be 07FE      		sbrs __tmp_reg__,7
 5136 13c0 00C0      		rjmp .L569
 5138               	.LM866:
 5139 13c2 85E0      		ldi r24,lo8(5)
 5140 13c4 8EBD      		out 78-32,r24
 5141               	.L570:
 5143               	.LM867:
 5144 13c6 0DB4      		in __tmp_reg__,77-32
 5145 13c8 07FE      		sbrs __tmp_reg__,7
 5146 13ca 00C0      		rjmp .L570
 5148               	.LM868:
 5149 13cc 1EBC      		out 78-32,__zero_reg__
 5150               	.L571:
 5152               	.LM869:
 5153 13ce 0DB4      		in __tmp_reg__,77-32
 5154 13d0 07FE      		sbrs __tmp_reg__,7
 5155 13d2 00C0      		rjmp .L571
 5157               	.LM870:
 5158 13d4 409A      		sbi 40-32,0
1093:../../../src/radio/cc2420/source/basic_rf.c ****     FASTSPI_SETREG(CC2420_DACTST, 0); // default value
 5160               	.LM871:
 5161 13d6 4098      		cbi 40-32,0
 5162 13d8 8EE2      		ldi r24,lo8(46)
 5163 13da 8EBD      		out 78-32,r24
 5164               	.L572:
 5166               	.LM872:
 5167 13dc 0DB4      		in __tmp_reg__,77-32
 5168 13de 07FE      		sbrs __tmp_reg__,7
 5169 13e0 00C0      		rjmp .L572
 5171               	.LM873:
 5172 13e2 1EBC      		out 78-32,__zero_reg__
 5173               	.L573:
 5175               	.LM874:
 5176 13e4 0DB4      		in __tmp_reg__,77-32
 5177 13e6 07FE      		sbrs __tmp_reg__,7
 5178 13e8 00C0      		rjmp .L573
 5180               	.LM875:
 5181 13ea 1EBC      		out 78-32,__zero_reg__
 5182               	.L574:
 5184               	.LM876:
 5185 13ec 0DB4      		in __tmp_reg__,77-32
 5186 13ee 07FE      		sbrs __tmp_reg__,7
 5187 13f0 00C0      		rjmp .L574
 5189               	.LM877:
 5190 13f2 409A      		sbi 40-32,0
1094:../../../src/radio/cc2420/source/basic_rf.c ****     rf_flush_rx_fifo();
 5192               	.LM878:
 5193 13f4 0E94 0000 		call rf_flush_rx_fifo
1095:../../../src/radio/cc2420/source/basic_rf.c **** #ifdef RADIO_PRIORITY_CEILING
1096:../../../src/radio/cc2420/source/basic_rf.c ****     nrk_sem_post(radio_sem);
 5195               	.LM879:
 5196 13f8 8091 0000 		lds r24,radio_sem
 5197 13fc 9091 0000 		lds r25,radio_sem+1
 5198 1400 0E94 0000 		call nrk_sem_post
 5199               	/* epilogue start */
1097:../../../src/radio/cc2420/source/basic_rf.c **** #endif
1098:../../../src/radio/cc2420/source/basic_rf.c **** }
 5201               	.LM880:
 5202 1404 0895      		ret
 5204               	.Lscope33:
 5206               		.stabd	78,0,0
 5208               	.global	rf_rx_set_serial
 5210               	rf_rx_set_serial:
 5211               		.stabd	46,0,0
1099:../../../src/radio/cc2420/source/basic_rf.c **** 
1100:../../../src/radio/cc2420/source/basic_rf.c **** 
1101:../../../src/radio/cc2420/source/basic_rf.c **** /**********************************************************
1102:../../../src/radio/cc2420/source/basic_rf.c ****  * Set the radio into serial unbuffered RX mode
1103:../../../src/radio/cc2420/source/basic_rf.c ****  * RX data is received through sampling the FIFO pin, timing is done using FIFOP
1104:../../../src/radio/cc2420/source/basic_rf.c ****  * Use rf_rx_on() to start rcv, then wait for SFD / FIFOP. Sample during each high edge of FIFOP
1105:../../../src/radio/cc2420/source/basic_rf.c ****  * This can be undone by using rf_data_mode()
1106:../../../src/radio/cc2420/source/basic_rf.c ****  */
1107:../../../src/radio/cc2420/source/basic_rf.c **** void rf_rx_set_serial()
1108:../../../src/radio/cc2420/source/basic_rf.c **** {
 5213               	.LM881:
 5214               	.LFBB34:
 5215               	/* prologue: function */
 5216               	/* frame size = 0 */
 5217               	/* stack size = 0 */
 5218               	.L__stack_usage = 0
1109:../../../src/radio/cc2420/source/basic_rf.c ****     FASTSPI_STROBE(CC2420_SRFOFF);           // stop radio
 5220               	.LM882:
 5221 1406 4098      		cbi 40-32,0
 5222 1408 86E0      		ldi r24,lo8(6)
 5223 140a 8EBD      		out 78-32,r24
 5224               	.L583:
 5226               	.LM883:
 5227 140c 0DB4      		in __tmp_reg__,77-32
 5228 140e 07FE      		sbrs __tmp_reg__,7
 5229 1410 00C0      		rjmp .L583
 5231               	.LM884:
 5232 1412 409A      		sbi 40-32,0
1110:../../../src/radio/cc2420/source/basic_rf.c ****     FASTSPI_SETREG(CC2420_MDMCTRL1, 0x0501); // Set RX_MODE to 1
 5234               	.LM885:
 5235 1414 4098      		cbi 40-32,0
 5236 1416 82E1      		ldi r24,lo8(18)
 5237 1418 8EBD      		out 78-32,r24
 5238               	.L584:
 5240               	.LM886:
 5241 141a 0DB4      		in __tmp_reg__,77-32
 5242 141c 07FE      		sbrs __tmp_reg__,7
 5243 141e 00C0      		rjmp .L584
 5245               	.LM887:
 5246 1420 85E0      		ldi r24,lo8(5)
 5247 1422 8EBD      		out 78-32,r24
 5248               	.L585:
 5250               	.LM888:
 5251 1424 0DB4      		in __tmp_reg__,77-32
 5252 1426 07FE      		sbrs __tmp_reg__,7
 5253 1428 00C0      		rjmp .L585
 5255               	.LM889:
 5256 142a 81E0      		ldi r24,lo8(1)
 5257 142c 8EBD      		out 78-32,r24
 5258               	.L586:
 5260               	.LM890:
 5261 142e 0DB4      		in __tmp_reg__,77-32
 5262 1430 07FE      		sbrs __tmp_reg__,7
 5263 1432 00C0      		rjmp .L586
 5265               	.LM891:
 5266 1434 409A      		sbi 40-32,0
1111:../../../src/radio/cc2420/source/basic_rf.c ****     rf_flush_rx_fifo();
 5268               	.LM892:
 5269 1436 0E94 0000 		call rf_flush_rx_fifo
 5270               	/* epilogue start */
1112:../../../src/radio/cc2420/source/basic_rf.c **** }
 5272               	.LM893:
 5273 143a 0895      		ret
 5275               	.Lscope34:
 5277               		.stabd	78,0,0
 5279               	.global	rf_tx_set_serial
 5281               	rf_tx_set_serial:
 5282               		.stabd	46,0,0
1113:../../../src/radio/cc2420/source/basic_rf.c **** 
1114:../../../src/radio/cc2420/source/basic_rf.c **** /**********************************************************
1115:../../../src/radio/cc2420/source/basic_rf.c ****  * Put the radio in serial TX mode, where data is sampled from the FIFO
1116:../../../src/radio/cc2420/source/basic_rf.c ****  * pin to send after SFD, and timing is done using FIFOP
1117:../../../src/radio/cc2420/source/basic_rf.c ****  * use rf_carrier_on() to start, set FIFO to first bit, then wait for it
1118:../../../src/radio/cc2420/source/basic_rf.c ****  * to go up and down, then set next bit etc.
1119:../../../src/radio/cc2420/source/basic_rf.c ****  * NOTE: You must set the FIFO pin to output mode in order to do this!
1120:../../../src/radio/cc2420/source/basic_rf.c ****  * This can be undone by calling rf_data_mode()
1121:../../../src/radio/cc2420/source/basic_rf.c ****  */
1122:../../../src/radio/cc2420/source/basic_rf.c **** void rf_tx_set_serial()
1123:../../../src/radio/cc2420/source/basic_rf.c **** {
 5284               	.LM894:
 5285               	.LFBB35:
 5286               	/* prologue: function */
 5287               	/* frame size = 0 */
 5288               	/* stack size = 0 */
 5289               	.L__stack_usage = 0
1124:../../../src/radio/cc2420/source/basic_rf.c ****     FASTSPI_SETREG(CC2420_MDMCTRL1, 0x0504); // set TXMODE to 1
 5291               	.LM895:
 5292 143c 4098      		cbi 40-32,0
 5293 143e 82E1      		ldi r24,lo8(18)
 5294 1440 8EBD      		out 78-32,r24
 5295               	.L592:
 5297               	.LM896:
 5298 1442 0DB4      		in __tmp_reg__,77-32
 5299 1444 07FE      		sbrs __tmp_reg__,7
 5300 1446 00C0      		rjmp .L592
 5302               	.LM897:
 5303 1448 85E0      		ldi r24,lo8(5)
 5304 144a 8EBD      		out 78-32,r24
 5305               	.L593:
 5307               	.LM898:
 5308 144c 0DB4      		in __tmp_reg__,77-32
 5309 144e 07FE      		sbrs __tmp_reg__,7
 5310 1450 00C0      		rjmp .L593
 5312               	.LM899:
 5313 1452 84E0      		ldi r24,lo8(4)
 5314 1454 8EBD      		out 78-32,r24
 5315               	.L594:
 5317               	.LM900:
 5318 1456 0DB4      		in __tmp_reg__,77-32
 5319 1458 07FE      		sbrs __tmp_reg__,7
 5320 145a 00C0      		rjmp .L594
 5322               	.LM901:
 5323 145c 409A      		sbi 40-32,0
1125:../../../src/radio/cc2420/source/basic_rf.c ****     rf_flush_rx_fifo();
 5325               	.LM902:
 5326 145e 0E94 0000 		call rf_flush_rx_fifo
 5327               	/* epilogue start */
1126:../../../src/radio/cc2420/source/basic_rf.c **** }
 5329               	.LM903:
 5330 1462 0895      		ret
 5332               	.Lscope35:
 5334               		.stabd	78,0,0
 5337               	.global	rf_set_preamble_length
 5339               	rf_set_preamble_length:
 5340               		.stabd	46,0,0
1127:../../../src/radio/cc2420/source/basic_rf.c **** 
1128:../../../src/radio/cc2420/source/basic_rf.c **** /**********************************************************
1129:../../../src/radio/cc2420/source/basic_rf.c ****  * Specifies the number of symbols to be part of preamble
1130:../../../src/radio/cc2420/source/basic_rf.c ****  * arg is equal to number of bytes - 1.
1131:../../../src/radio/cc2420/source/basic_rf.c ****  * (3 bytes is 802.15.4 compliant, so length arg would be 2)
1132:../../../src/radio/cc2420/source/basic_rf.c ****  * Length arg supports values 0 to 15. See the datasheet of course for more details
1133:../../../src/radio/cc2420/source/basic_rf.c ****  */
1134:../../../src/radio/cc2420/source/basic_rf.c **** void rf_set_preamble_length(uint8_t length)
1135:../../../src/radio/cc2420/source/basic_rf.c **** {
 5342               	.LM904:
 5343               	.LFBB36:
 5344               	/* prologue: function */
 5345               	/* frame size = 0 */
 5346               	/* stack size = 0 */
 5347               	.L__stack_usage = 0
1136:../../../src/radio/cc2420/source/basic_rf.c ****     mdmctrl0 &= (0xFFF0);
1137:../../../src/radio/cc2420/source/basic_rf.c ****     mdmctrl0 |= (length & 0x000F);
 5349               	.LM905:
 5350 1464 90E0      		ldi r25,lo8(0)
 5351 1466 8F70      		andi r24,lo8(15)
 5352 1468 9070      		andi r25,hi8(15)
1136:../../../src/radio/cc2420/source/basic_rf.c ****     mdmctrl0 &= (0xFFF0);
 5354               	.LM906:
 5355 146a 2091 0000 		lds r18,mdmctrl0
 5356 146e 3091 0000 		lds r19,mdmctrl0+1
 5357 1472 207F      		andi r18,lo8(-16)
 5359               	.LM907:
 5360 1474 822B      		or r24,r18
 5361 1476 932B      		or r25,r19
 5362 1478 9093 0000 		sts mdmctrl0+1,r25
 5363 147c 8093 0000 		sts mdmctrl0,r24
1138:../../../src/radio/cc2420/source/basic_rf.c ****     FASTSPI_SETREG(CC2420_MDMCTRL0, mdmctrl0);
 5365               	.LM908:
 5366 1480 4098      		cbi 40-32,0
 5367 1482 81E1      		ldi r24,lo8(17)
 5368 1484 8EBD      		out 78-32,r24
 5369               	.L599:
 5371               	.LM909:
 5372 1486 0DB4      		in __tmp_reg__,77-32
 5373 1488 07FE      		sbrs __tmp_reg__,7
 5374 148a 00C0      		rjmp .L599
 5376               	.LM910:
 5377 148c 8091 0000 		lds r24,mdmctrl0+1
 5378 1490 8EBD      		out 78-32,r24
 5379               	.L600:
 5381               	.LM911:
 5382 1492 0DB4      		in __tmp_reg__,77-32
 5383 1494 07FE      		sbrs __tmp_reg__,7
 5384 1496 00C0      		rjmp .L600
 5386               	.LM912:
 5387 1498 8091 0000 		lds r24,mdmctrl0
 5388 149c 8EBD      		out 78-32,r24
 5389               	.L601:
 5391               	.LM913:
 5392 149e 0DB4      		in __tmp_reg__,77-32
 5393 14a0 07FE      		sbrs __tmp_reg__,7
 5394 14a2 00C0      		rjmp .L601
 5396               	.LM914:
 5397 14a4 409A      		sbi 40-32,0
 5398               	/* epilogue start */
1139:../../../src/radio/cc2420/source/basic_rf.c **** }
 5400               	.LM915:
 5401 14a6 0895      		ret
 5403               	.Lscope36:
 5405               		.stabd	78,0,0
 5408               	.global	rf_set_cca_mode
 5410               	rf_set_cca_mode:
 5411               		.stabd	46,0,0
1140:../../../src/radio/cc2420/source/basic_rf.c **** 
1141:../../../src/radio/cc2420/source/basic_rf.c **** /**********************************************************
1142:../../../src/radio/cc2420/source/basic_rf.c ****  * Set the CCA mode
1143:../../../src/radio/cc2420/source/basic_rf.c ****  * Accept 1-3 as argument
1144:../../../src/radio/cc2420/source/basic_rf.c ****  */
1145:../../../src/radio/cc2420/source/basic_rf.c **** void rf_set_cca_mode(uint8_t mode)
1146:../../../src/radio/cc2420/source/basic_rf.c **** {
 5413               	.LM916:
 5414               	.LFBB37:
 5415               	/* prologue: function */
 5416               	/* frame size = 0 */
 5417               	/* stack size = 0 */
 5418               	.L__stack_usage = 0
1147:../../../src/radio/cc2420/source/basic_rf.c ****     mdmctrl0 &= (0xFF3F);
1148:../../../src/radio/cc2420/source/basic_rf.c ****     mdmctrl0 |= ((mode & 0x3) << 6);
 5420               	.LM917:
 5421 14a8 90E0      		ldi r25,lo8(0)
 5422 14aa 26E0      		ldi r18,6
 5423 14ac 880F      	1:	lsl r24
 5424 14ae 991F      		rol r25
 5425 14b0 2A95      		dec r18
 5426 14b2 01F4      		brne 1b
 5427 14b4 9070      		andi r25,hi8(255)
1147:../../../src/radio/cc2420/source/basic_rf.c ****     mdmctrl0 &= (0xFF3F);
 5429               	.LM918:
 5430 14b6 2091 0000 		lds r18,mdmctrl0
 5431 14ba 3091 0000 		lds r19,mdmctrl0+1
 5432 14be 2F73      		andi r18,lo8(-193)
 5434               	.LM919:
 5435 14c0 822B      		or r24,r18
 5436 14c2 932B      		or r25,r19
 5437 14c4 9093 0000 		sts mdmctrl0+1,r25
 5438 14c8 8093 0000 		sts mdmctrl0,r24
1149:../../../src/radio/cc2420/source/basic_rf.c ****     FASTSPI_SETREG(CC2420_MDMCTRL0, mdmctrl0);
 5440               	.LM920:
 5441 14cc 4098      		cbi 40-32,0
 5442 14ce 81E1      		ldi r24,lo8(17)
 5443 14d0 8EBD      		out 78-32,r24
 5444               	.L606:
 5446               	.LM921:
 5447 14d2 0DB4      		in __tmp_reg__,77-32
 5448 14d4 07FE      		sbrs __tmp_reg__,7
 5449 14d6 00C0      		rjmp .L606
 5451               	.LM922:
 5452 14d8 8091 0000 		lds r24,mdmctrl0+1
 5453 14dc 8EBD      		out 78-32,r24
 5454               	.L607:
 5456               	.LM923:
 5457 14de 0DB4      		in __tmp_reg__,77-32
 5458 14e0 07FE      		sbrs __tmp_reg__,7
 5459 14e2 00C0      		rjmp .L607
 5461               	.LM924:
 5462 14e4 8091 0000 		lds r24,mdmctrl0
 5463 14e8 8EBD      		out 78-32,r24
 5464               	.L608:
 5466               	.LM925:
 5467 14ea 0DB4      		in __tmp_reg__,77-32
 5468 14ec 07FE      		sbrs __tmp_reg__,7
 5469 14ee 00C0      		rjmp .L608
 5471               	.LM926:
 5472 14f0 409A      		sbi 40-32,0
 5473               	/* epilogue start */
1150:../../../src/radio/cc2420/source/basic_rf.c **** }
 5475               	.LM927:
 5476 14f2 0895      		ret
 5478               	.Lscope37:
 5480               		.stabd	78,0,0
 5482               	.global	rf_carrier_on
 5484               	rf_carrier_on:
 5485               		.stabd	46,0,0
1151:../../../src/radio/cc2420/source/basic_rf.c **** 
1152:../../../src/radio/cc2420/source/basic_rf.c **** /**********************************************************
1153:../../../src/radio/cc2420/source/basic_rf.c ****  * start sending a carrier pulse
1154:../../../src/radio/cc2420/source/basic_rf.c ****  * assumes wdrf_radio_test_mode() was called before doing this
1155:../../../src/radio/cc2420/source/basic_rf.c ****  */
1156:../../../src/radio/cc2420/source/basic_rf.c **** void rf_carrier_on()
1157:../../../src/radio/cc2420/source/basic_rf.c **** {
 5487               	.LM928:
 5488               	.LFBB38:
 5489               	/* prologue: function */
 5490               	/* frame size = 0 */
 5491               	/* stack size = 0 */
 5492               	.L__stack_usage = 0
1158:../../../src/radio/cc2420/source/basic_rf.c **** #ifdef RADIO_PRIORITY_CEILING
1159:../../../src/radio/cc2420/source/basic_rf.c ****     nrk_sem_pend(radio_sem);
 5494               	.LM929:
 5495 14f4 8091 0000 		lds r24,radio_sem
 5496 14f8 9091 0000 		lds r25,radio_sem+1
 5497 14fc 0E94 0000 		call nrk_sem_pend
1160:../../../src/radio/cc2420/source/basic_rf.c **** #endif
1161:../../../src/radio/cc2420/source/basic_rf.c **** 
1162:../../../src/radio/cc2420/source/basic_rf.c **** #ifdef CC2420_OSC_OPT
1163:../../../src/radio/cc2420/source/basic_rf.c ****     FASTSPI_STROBE(CC2420_SXOSCON);
1164:../../../src/radio/cc2420/source/basic_rf.c ****     nrk_spin_wait_us(OSC_STARTUP_DELAY);
1165:../../../src/radio/cc2420/source/basic_rf.c **** #endif
1166:../../../src/radio/cc2420/source/basic_rf.c **** 
1167:../../../src/radio/cc2420/source/basic_rf.c **** 
1168:../../../src/radio/cc2420/source/basic_rf.c **** 
1169:../../../src/radio/cc2420/source/basic_rf.c ****     FASTSPI_STROBE(CC2420_STXON); // tell radio to start sending
 5499               	.LM930:
 5500 1500 4098      		cbi 40-32,0
 5501 1502 84E0      		ldi r24,lo8(4)
 5502 1504 8EBD      		out 78-32,r24
 5503               	.L613:
 5505               	.LM931:
 5506 1506 0DB4      		in __tmp_reg__,77-32
 5507 1508 07FE      		sbrs __tmp_reg__,7
 5508 150a 00C0      		rjmp .L613
 5510               	.LM932:
 5511 150c 409A      		sbi 40-32,0
1170:../../../src/radio/cc2420/source/basic_rf.c **** #ifdef RADIO_PRIORITY_CEILING
1171:../../../src/radio/cc2420/source/basic_rf.c ****     nrk_sem_post(radio_sem);
 5513               	.LM933:
 5514 150e 8091 0000 		lds r24,radio_sem
 5515 1512 9091 0000 		lds r25,radio_sem+1
 5516 1516 0E94 0000 		call nrk_sem_post
 5517               	/* epilogue start */
1172:../../../src/radio/cc2420/source/basic_rf.c **** #endif
1173:../../../src/radio/cc2420/source/basic_rf.c **** }
 5519               	.LM934:
 5520 151a 0895      		ret
 5522               	.Lscope38:
 5524               		.stabd	78,0,0
 5526               	.global	rf_carrier_off
 5528               	rf_carrier_off:
 5529               		.stabd	46,0,0
1174:../../../src/radio/cc2420/source/basic_rf.c **** 
1175:../../../src/radio/cc2420/source/basic_rf.c **** /**********************************************************
1176:../../../src/radio/cc2420/source/basic_rf.c ****  * stop sending a carrier pulse; set the radio to idle state
1177:../../../src/radio/cc2420/source/basic_rf.c ****  */
1178:../../../src/radio/cc2420/source/basic_rf.c **** void rf_carrier_off()
1179:../../../src/radio/cc2420/source/basic_rf.c **** {
 5531               	.LM935:
 5532               	.LFBB39:
 5533               	/* prologue: function */
 5534               	/* frame size = 0 */
 5535               	/* stack size = 0 */
 5536               	.L__stack_usage = 0
1180:../../../src/radio/cc2420/source/basic_rf.c **** #ifdef RADIO_PRIORITY_CEILING
1181:../../../src/radio/cc2420/source/basic_rf.c ****     nrk_sem_pend(radio_sem);
 5538               	.LM936:
 5539 151c 8091 0000 		lds r24,radio_sem
 5540 1520 9091 0000 		lds r25,radio_sem+1
 5541 1524 0E94 0000 		call nrk_sem_pend
1182:../../../src/radio/cc2420/source/basic_rf.c **** #endif
1183:../../../src/radio/cc2420/source/basic_rf.c **** 
1184:../../../src/radio/cc2420/source/basic_rf.c **** #ifdef CC2420_OSC_OPT
1185:../../../src/radio/cc2420/source/basic_rf.c ****     FASTSPI_STROBE(CC2420_SXOSCOFF);
1186:../../../src/radio/cc2420/source/basic_rf.c **** #endif
1187:../../../src/radio/cc2420/source/basic_rf.c **** 
1188:../../../src/radio/cc2420/source/basic_rf.c **** 
1189:../../../src/radio/cc2420/source/basic_rf.c ****     FASTSPI_STROBE(CC2420_SRFOFF); // stop radio
 5543               	.LM937:
 5544 1528 4098      		cbi 40-32,0
 5545 152a 86E0      		ldi r24,lo8(6)
 5546 152c 8EBD      		out 78-32,r24
 5547               	.L616:
 5549               	.LM938:
 5550 152e 0DB4      		in __tmp_reg__,77-32
 5551 1530 07FE      		sbrs __tmp_reg__,7
 5552 1532 00C0      		rjmp .L616
 5554               	.LM939:
 5555 1534 409A      		sbi 40-32,0
1190:../../../src/radio/cc2420/source/basic_rf.c **** #ifdef RADIO_PRIORITY_CEILING
1191:../../../src/radio/cc2420/source/basic_rf.c ****     nrk_sem_post(radio_sem);
 5557               	.LM940:
 5558 1536 8091 0000 		lds r24,radio_sem
 5559 153a 9091 0000 		lds r25,radio_sem+1
 5560 153e 0E94 0000 		call nrk_sem_post
 5561               	/* epilogue start */
1192:../../../src/radio/cc2420/source/basic_rf.c **** #endif
1193:../../../src/radio/cc2420/source/basic_rf.c **** }
 5563               	.LM941:
 5564 1542 0895      		ret
 5566               	.Lscope39:
 5568               		.stabd	78,0,0
 5569               		.comm _nrk_signal_list,4,1
 5570               		.comm rfSettings,9,1
 5571               		.comm nrk_idle_task_stk,128,1
 5572               		.comm nrk_kernel_stk_ptr,2,1
 5573               		.comm error_task,1,1
 5574               		.comm error_num,1,1
 5575               		.comm _nrk_prev_timer_val,1,1
 5576               		.comm _nrk_time_trigger,1,1
 5577               		.comm app_timer0_callback,2,1
 5578               		.comm app_timer0_prescale,1,1
 5579               		.comm radio_sem,2,1
 5580               		.comm auto_ack_enable,1,1
 5581               		.comm security_enable,1,1
 5582               		.comm last_pkt_encrypted,1,1
 5583               		.comm mdmctrl0,2,1
 5584               		.comm tx_ctr,4,1
 5585               		.comm rx_ctr,4,1
 5586               		.comm rx_ready,1,1
 5587               		.comm tmp_blah,2,1
 5588               		.section	.progmem.data,"a",@progbits
 5591               	__c.2433:
 5592 0000 4343 3234 		.string	"CC2420 ERROR:  Release of semaphore failed\r\n"
 5592      3230 2045 
 5592      5252 4F52 
 5592      3A20 2052 
 5592      656C 6561 
 5595               	__c.2371:
 5596 002d 4343 3234 		.string	"CC2420 ERROR:  Access to semaphore failed\r\n"
 5596      3230 2045 
 5596      5252 4F52 
 5596      3A20 2041 
 5596      6363 6573 
 5616               		.text
 5618               	.Letext0:
 5619               	.global __do_clear_bss
DEFINED SYMBOLS
                            *ABS*:0000000000000000 basic_rf.c
     /tmp/ccFdCnGj.s:2      *ABS*:000000000000003f __SREG__
     /tmp/ccFdCnGj.s:3      *ABS*:000000000000003e __SP_H__
     /tmp/ccFdCnGj.s:4      *ABS*:000000000000003d __SP_L__
     /tmp/ccFdCnGj.s:5      *ABS*:0000000000000034 __CCP__
     /tmp/ccFdCnGj.s:6      *ABS*:0000000000000000 __tmp_reg__
     /tmp/ccFdCnGj.s:7      *ABS*:0000000000000001 __zero_reg__
     /tmp/ccFdCnGj.s:138    .text:0000000000000000 cc259x_rx
     /tmp/ccFdCnGj.s:166    .text:0000000000000012 cc259x_tx
     /tmp/ccFdCnGj.s:194    .text:0000000000000024 rf_power_down
     /tmp/ccFdCnGj.s:258    .text:0000000000000046 rf_power_up
     /tmp/ccFdCnGj.s:313    .text:0000000000000062 rf_security_last_pkt_status
                            *COM*:0000000000000001 last_pkt_encrypted
     /tmp/ccFdCnGj.s:335    .text:0000000000000068 rf_security_set_ctr_counter
                            *COM*:0000000000000004 tx_ctr
     /tmp/ccFdCnGj.s:462    .text:00000000000000e8 rf_security_set_key
     /tmp/ccFdCnGj.s:834    .text:000000000000029c rf_security_enable
                            *COM*:0000000000000001 security_enable
     /tmp/ccFdCnGj.s:926    .text:00000000000002e8 rf_security_disable
     /tmp/ccFdCnGj.s:983    .text:0000000000000310 rf_get_sem
                            *COM*:0000000000000002 radio_sem
     /tmp/ccFdCnGj.s:1006   .text:000000000000031a rf_tx_power
     /tmp/ccFdCnGj.s:1083   .text:0000000000000364 rf_set_channel
     /tmp/ccFdCnGj.s:1120   .text:000000000000038a rf_addr_decode_enable
                            *COM*:0000000000000002 mdmctrl0
     /tmp/ccFdCnGj.s:1181   .text:00000000000003c4 rf_addr_decode_disable
     /tmp/ccFdCnGj.s:1242   .text:00000000000003fe rf_auto_ack_enable
                            *COM*:0000000000000001 auto_ack_enable
     /tmp/ccFdCnGj.s:1307   .text:000000000000043e rf_auto_ack_disable
     /tmp/ccFdCnGj.s:1372   .text:000000000000047c rf_addr_decode_set_my_mac
                            *COM*:0000000000000009 rfSettings
     /tmp/ccFdCnGj.s:1467   .text:00000000000004dc rf_set_rx
     /tmp/ccFdCnGj.s:1552   .text:000000000000053e rf_init
     /tmp/ccFdCnGj.s:5595   .progmem.data:000000000000002d __c.2371
     /tmp/ccFdCnGj.s:5591   .progmem.data:0000000000000000 __c.2433
     /tmp/ccFdCnGj.s:1978   .text:0000000000000728 rf_rx_on
                            *COM*:0000000000000001 rx_ready
     /tmp/ccFdCnGj.s:2043   .text:0000000000000768 rf_polling_rx_on
     /tmp/ccFdCnGj.s:2108   .text:00000000000007a8 rf_rx_off
     /tmp/ccFdCnGj.s:2161   .text:00000000000007d8 rf_tx_tdma_packet
     /tmp/ccFdCnGj.s:2906   .text:0000000000000ad8 rf_tx_packet
     /tmp/ccFdCnGj.s:3740   .text:0000000000000e28 rf_busy
     /tmp/ccFdCnGj.s:3765   .text:0000000000000e30 rf_rx_check_fifop
     /tmp/ccFdCnGj.s:3791   .text:0000000000000e3a rf_rx_check_sfd
     /tmp/ccFdCnGj.s:3816   .text:0000000000000e42 rf_polling_rx_packet
                            *COM*:0000000000000004 rx_ctr
     /tmp/ccFdCnGj.s:4818   .text:00000000000012ae rf_rx_packet
     /tmp/ccFdCnGj.s:4858   .text:00000000000012c4 rf_flush_rx_fifo
     /tmp/ccFdCnGj.s:4907   .text:00000000000012e2 rf_set_cca_thresh
     /tmp/ccFdCnGj.s:4984   .text:000000000000132e rf_test_mode
     /tmp/ccFdCnGj.s:5098   .text:000000000000139c rf_data_mode
     /tmp/ccFdCnGj.s:5210   .text:0000000000001406 rf_rx_set_serial
     /tmp/ccFdCnGj.s:5281   .text:000000000000143c rf_tx_set_serial
     /tmp/ccFdCnGj.s:5339   .text:0000000000001464 rf_set_preamble_length
     /tmp/ccFdCnGj.s:5410   .text:00000000000014a8 rf_set_cca_mode
     /tmp/ccFdCnGj.s:5484   .text:00000000000014f4 rf_carrier_on
     /tmp/ccFdCnGj.s:5528   .text:000000000000151c rf_carrier_off
                            *COM*:0000000000000004 _nrk_signal_list
                            *COM*:0000000000000080 nrk_idle_task_stk
                            *COM*:0000000000000002 nrk_kernel_stk_ptr
                            *COM*:0000000000000001 error_task
                            *COM*:0000000000000001 error_num
                            *COM*:0000000000000001 _nrk_prev_timer_val
                            *COM*:0000000000000001 _nrk_time_trigger
                            *COM*:0000000000000002 app_timer0_callback
                            *COM*:0000000000000001 app_timer0_prescale
                            *COM*:0000000000000002 tmp_blah

UNDEFINED SYMBOLS
NRK_DEBUG_1
nrk_gpio_set
NRK_DEBUG_0
nrk_gpio_clr
nrk_spin_wait_us
nrk_sem_pend
nrk_sem_post
halRfSetChannel
nrk_sem_create
nrk_get_pid
nrk_kernel_error_add
nrk_kprintf
halWait
halRfWaitForCrystalOscillator
_nrk_errno_set
_nrk_os_timer_get
nrk_high_speed_timer_wait
__do_clear_bss
